In archive libIOTCAPIs.a:

IOTCAPIs.o:     file format elf32-littlearm
rw-rw-r-- 1000/1000 188128 Apr 27 23:12 2018 IOTCAPIs.o
architecture: armv5te, flags 0x00000011:
HAS_RELOC, HAS_SYMS
start address 0x00000000
private flags = 5000000: [Version5 EABI]

Sections:
Idx Name          Size      VMA       LMA       File off  Algn
  0 .text         00020458  00000000  00000000  00000034  2**2
                  CONTENTS, ALLOC, LOAD, RELOC, READONLY, CODE
  1 .data         000000ac  00000000  00000000  0002048c  2**2
                  CONTENTS, ALLOC, LOAD, DATA
  2 .bss          00003538  00000000  00000000  00020538  2**2
                  ALLOC
  3 .rodata       00000020  00000000  00000000  00020538  2**2
                  CONTENTS, ALLOC, LOAD, READONLY, DATA
  4 .data.rel.ro.local 00000040  00000000  00000000  00020558  2**2
                  CONTENTS, ALLOC, LOAD, RELOC, DATA
  5 .rodata.str1.4 00000213  00000000  00000000  00020598  2**2
                  CONTENTS, ALLOC, LOAD, READONLY, DATA
  6 .comment      00000028  00000000  00000000  000207ab  2**0
                  CONTENTS, READONLY
  7 .note.GNU-stack 00000000  00000000  00000000  000207d3  2**0
                  CONTENTS, READONLY
  8 .ARM.attributes 0000002b  00000000  00000000  000207d3  2**0
                  CONTENTS, READONLY
SYMBOL TABLE:
00000000 l    df *ABS*	00000000 IOTCAPIs.c
00000000 l    d  .text	00000000 .text
00000000 l    d  .data	00000000 .data
00000000 l    d  .bss	00000000 .bss
00000000 l     F .text	0000006c CloseAllDetectNetworkConnections
0000006c l     F .text	0000000c IOTC_TCPConnectToServerSetupNBFailCB
00000078 l     F .text	00000024 DetectNetworkReachableSetupFailCBNB
0000009c l     F .text	00000004 setupSuccessCallback
000000a0 l     F .text	00000004 setupFailedCallback
000000a4 l     F .text	00000064 CloseAllTcpServerConnections
00000108 l     F .text	0000007c CloseUnusedTcpServerConnections
00000184 l     F .text	00000098 _TcpConnectDetectNetworkServerSetupSuccCB
0000021c l     F .text	00000090 _TcpConnectDetectNetworkServerSetupFailCB
000002ac l     F .text	00000058 _TcpConnectServerSetupSuccCB
00000304 l     F .text	00000130 _TcpConnectServerSetupFailCB
00000434 l     F .text	00000134 _TcpConnectMasterSetupFailCB
00000568 l     F .text	00000088 __Search_DeviceInfo
000005f0 l     F .text	00000098 __Search_VPGServerList
00000688 l     F .text	00000070 _SearchServerListIndex
000006f8 l     F .text	00000098 __IsExceedSession
00000790 l     F .text	000000bc __Search_OnConnectSessionByUID
0000084c l     F .text	000001a0 IOTC_TcpConnectToMasterTryPortSetupFailCB
000009ec l     F .text	000000a4 __GetNotYetReturnConnectedSession
00000a90 l     F .text	000000bc __Search_SessionByUID
00000b4c l     F .text	00000078 __Get_Free_PreSession
00000bc4 l     F .text	00000038 _ReleasePreSession
00000bfc l     F .text	000000d8 __RemoteSiteClose_Session
00000cd4 l     F .text	00000064 _Reset_Check_Nat_Status
00000d38 l     F .text	00000090 IsPrivateIPforV4
00000000 l       .rodata.str1.4	00000000 .LC0
0000000c l       .rodata.str1.4	00000000 .LC1
00000018 l       .rodata.str1.4	00000000 .LC2
00000dc8 l     F .text	000000e4 CleanDeviceVPG
00000eac l     F .text	000000b0 IOTC_SearchDevice_Release
00000f5c l     F .text	000000bc __Update_DeviceInfo
00001018 l     F .text	00000030 _IOTC_Update_RemoteWANIP
00001048 l     F .text	000002d0 IOTC_TcpConnectToMasterTryPort
0001e094 l     F .text	00000208 P2PTCPConnectionRecvCallback
00001cc8 l     F .text	000000f8 IOTC_TcpConnectToMasterTryPortSetupSuccCB
00001318 l     F .text	00000138 IOTC_OpenUDP_LANSocket
0001dfc0 l     F .text	000000d4 P2PConnectionRecvCallback
00001450 l     F .text	000000c8 IOTC_TCPConnectToServerSetupNBSuccCB
00001518 l     F .text	000001b8 _SetSendPath
000016d0 l     F .text	00000150 SendKeepNATCB
00001820 l     F .text	0000029c _TcpConnectServer
00001abc l     F .text	0000005c update_lan_search_record_ip_port
00001b18 l     F .text	00000048 update_lan_search_record_device_name
00001b60 l     F .text	00000168 _IOTC_GetLocalIPAddr
00000024 l       .rodata.str1.4	00000000 .LC3
00001dc0 l     F .text	0000006c DetectNetworkReachableSetupSuccCB
00001e2c l     F .text	00000044 DetectNetworkReachableSetupSuccCBNB
00001e70 l     F .text	0000014c _TcpConnectMasterSetupSuccCB
00001fbc l     F .text	00000074 RefTryPortSkt
00002030 l     F .text	00000054 iotc_set_master_resolved_status
00002084 l     F .text	00000094 CloseAllTcpMasterConnections.part.14
00002118 l     F .text	00000088 DetectNetworkReachableSetupFailCB
000021a0 l     F .text	000003c4 _Check_WAN_Addr
00002564 l     F .text	000000f4 _Check_Nat_Type
00002658 l     F .text	0000013c IOTC_OpenUDP_P2PSocket.isra.22
00002794 l     F .text	00000110 IOTC_Handler_MSG_DEVICE_LOGIN_R.isra.23
000028a4 l     F .text	00000034 EndOneTCPConnServerTask.part.25
00003388 l     F .text	0000004c TCPReconnectServerTaskCB
000028d8 l     F .text	00000044 EndOneTCPConnServerTask
0000291c l     F .text	00000304 isDeviceSleep
00002c20 l     F .text	00000180 InitSessionInfo
00002da0 l     F .text	000000c0 __Get_Free_Session
00002e60 l     F .text	0000015c IsPrivateIP
0000002c l       .rodata.str1.4	00000000 .LC4
00000034 l       .rodata.str1.4	00000000 .LC5
0000003c l       .rodata.str1.4	00000000 .LC6
00000044 l       .rodata.str1.4	00000000 .LC7
0000004c l       .rodata.str1.4	00000000 .LC8
00002fbc l     F .text	0000006c _UpdateSendPathAddres.constprop.120
00003028 l     F .text	00000360 IOTC_TCPConnectToServer.constprop.122
0000444c l     F .text	00000148 IOTC_TCPConnectToServerSetupSuccCB
000043c0 l     F .text	0000008c IOTC_TCPConnectToServerSetupFailCB
000033d4 l     F .text	00000084 IOTC_TCPConnectServerError
00003458 l     F .text	00000058 __ReadBufList_Destroy
000034b0 l     F .text	00000214 is_lan_search_record_found
000036c4 l     F .text	00000080 _ResponseTimeAck
00003744 l     F .text	00000078 _ResponseTimeTest.part.26
000037bc l     F .text	00000298 TransCodePartial
00000054 l       .rodata.str1.4	00000000 .LC9
00003a54 l     F .text	00000048 IOTC_Handler_MSG_OTHER.isra.20.part.21
00003a9c l     F .text	00000204 update_lan_search_record.constprop.127
00003ca0 l     F .text	0000012c _UpdateLanDeviceList.part.36.constprop.126
00003dcc l     F .text	00000270 UpdateLanSearchInfoList
0000403c l     F .text	00000384 ReverseTransCodePartial
00004594 l     F .text	000000b0 _UpdateUdpServerRelaySuccessStatus
00004644 l     F .text	00000110 _UpdateTcpServerRelayRequestRStatus
00004754 l     F .text	0000013c _UpdateDeviceStatus
00004890 l     F .text	0000014c _UpdateUdpServerList
000049dc l     F .text	000000e8 __Search_Session
00004ac4 l     F .text	00000160 __Search_Session_ByRelaySID
00004c24 l     F .text	0000005c Check_Addr_TheSame
00004c80 l     F .text	00000258 _UpdateServerProtocolVersion
00004ed8 l     F .text	00000a64 __Update_VPGServerList.part.38
0000593c l     F .text	00000438 IOTC_Handler_MSG_QUERY_DEVICE2_R.isra.39
00000078 l       .rodata.str1.4	00000000 .LC10
00005d74 l     F .text	000002a0 IOTC_Handler_MSG_QUERY_DEVICE4_R.isra.40
00006014 l     F .text	00000318 IOTC_Handler_MSG_QUERY_DEVICE5_R.isra.41
000063cc l     F .text	00000120 RemoveTryPortNodeWithRandomID
000064ec l     F .text	00000260 _ReleaseSession
0000674c l     F .text	00000150 CheckRecentClosedClientRandomID
0000689c l     F .text	000000c8 __Search_SessionByClientRandomID.part.43
00006964 l     F .text	000000c8 __Search_PreSessionByClientRandomID
00006a2c l     F .text	00000a18 AddTryPortNode
000078d4 l     F .text	0000005c creatingDeviceSessionRecycling
00008258 l     F .text	00000090 deviceSessionRecyclingTask
00007930 l     F .text	00000134 IOTC_Query_VPGServerListNB
0000da14 l     F .text	00000154 checkP2PServerRoutine
0000e4c4 l     F .text	000003c0 sendQueryDeviceRoutine
0000dfd0 l     F .text	000001f8 checkQueryDeviceStateRoutine
00007a64 l     F .text	00000228 DetectNetworkReachableNB
000080bc l     F .text	000000a8 checkNetworkStatusCB
00007c8c l     F .text	00000060 _DetectNetworkStart
000108b4 l     F .text	00000300 _Task_DetectNetwork
00007cec l     F .text	0000005c _TcpConnectStart
0000eb94 l     F .text	000004d4 _Task_TcpConnect
00007d48 l     F .text	0000005c _TcpRelayRequestStart
0000b9ac l     F .text	000001c8 _Task_TcpRelayRequest
00007f34 l     F .text	00000188 checkTcpToServerRoutine
000082e8 l     F .text	00000158 resolveMasterCheck
000115b8 l     F .text	00000684 devLoginMonitor
000084a4 l     F .text	000001d8 _IOTC_P2P_Connection_Check
000087a0 l     F .text	000000cc _IOTC_Send_WakeUp
00000080 l       .rodata.str1.4	00000000 .LC11
0000886c l     F .text	00000110 _IOTC_Send_Search_R
0000897c l     F .text	000000b4 LanSearchPrecheckRTaskCB
00008a30 l     F .text	000000fc _IOTC_Send_Search_R_old
00008b2c l     F .text	000001e8 _IOTC_Send_Knock.isra.56
00008d14 l     F .text	00000158 _IOTC_SendCap_R
00008e6c l     F .text	000000f0 _IOTC_Send_RLY_Session_Info_Request.isra.59
00008f5c l     F .text	000000bc _UdpRelaySessionInfoRequestServer
00009018 l     F .text	00000070 UDPRelaySessionInfoRequestTaskCB
00009088 l     F .text	00000118 _TcpRelaySessionInfoRequestServer
000091a0 l     F .text	000000bc _IOTC_Send_RLY_Session_InfoR.isra.61
0000925c l     F .text	0000012c _IOTC_Send_Rly_Knock_R
00009388 l     F .text	0000034c IOTC_Handler_MSG_RLY_KNOCK.isra.64
000096d4 l     F .text	00000148 _IOTC_Send_Knock_RR.part.65
0000981c l     F .text	000001fc _IOTC_Send_Knock_R
00009a18 l     F .text	00000474 IOTC_Handler_MSG_P2P_KNOCK.isra.68
00009e8c l     F .text	00000164 IOTC_Handler_DIAG_PING_MODULE.isra.69
00009ff0 l     F .text	00000140 _IOTC_SendCap
0000a130 l     F .text	000000a4 _IOTC_SendConnectSuccess
0000a1d4 l     F .text	000000ac _IOTC_SendPreCheck1
0000a280 l     F .text	00000430 _IOTC_SendP2PRequest.isra.71
0000a6b0 l     F .text	00000390 UDPP2PConnectTaskCB
0000aa40 l     F .text	000000b4 _IOTC_Send_Punch_To.part.79
0000aaf4 l     F .text	00000254 SendConnectErrorCode_inner.part.115
0000ad48 l     F .text	000000c8 _IOTC_Send_Knock_WithRandomID.constprop.121
0000ae10 l     F .text	000009a8 _IOTC_callback_Try_Port
0000b7b8 l     F .text	000000b8 _IOTC_SendRLYRequest3.isra.72.part.73.constprop.124
0000b870 l     F .text	0000013c _IOTC_SendRLYRequest.isra.74.constprop.125
0000bb74 l     F .text	00000158 _UdpRelayRequestServer
0000bccc l     F .text	00000078 UDPRelayConnectTaskCB
0000bd44 l     F .text	000000ac _IOTC_SendPreCheck2.constprop.130
0000bdf0 l     F .text	00000240 UDPPreCheckTaskCB
00000090 l       .rodata.str1.4	00000000 .LC12
0000c31c l     F .text	0000016c _IOTC_Send_Search
0000c488 l     F .text	00000198 SendLanSearchTaskCB
0000c620 l     F .text	000000a4 SearchDeviceTaskCB
0000c898 l     F .text	000002a8 IOTC_Handler_MSG_RLY_PACKET_S2D.isra.77
0000cb40 l     F .text	000002a8 IOTC_Handler_MSG_RLY_PACKET_S2C.isra.78
0000cfd8 l     F .text	000001d4 _IOTC_SendAlive
0000d1ac l     F .text	0000018c _IOTC_thread_Session_Alive
0000d338 l     F .text	00000118 _IOTC_Send_P2PClose
0000d450 l     F .text	00000168 _IOTC_Send_RLYClose
0000d5b8 l     F .text	0000029c _IOTC_SendPacket
0000d854 l     F .text	00000100 SendKnockRWhenDeviceNotResponseCB
0000db68 l     F .text	00000164 UDPHelloServerTaskCB
0000de80 l     F .text	00000150 checkTcpToMasterRoutine
0000e1c8 l     F .text	000002f0 DetectNetworkReachable.constprop.117
0000e884 l     F .text	00000310 UDPQueryDeviceInfoTaskCB
0000f3d0 l     F .text	0000067c IOTC_Query_VPGServerList.constprop.119
0000fd38 l     F .text	00000320 IOTC_Handler_MSG_DEVICE_LOGIN1_R.isra.84
000149bc l     F .text	00000544 SendDeviceLoginCB
000100d8 l     F .text	000003e4 IOTC_Handler_MSG_P2P_PACKET_C2D.isra.85
00010594 l     F .text	000001e8 IOTC_Handler_HELLO_R
0000009c l       .rodata.str1.4	00000000 .LC13
00010c38 l     F .text	000001b8 append_iotc_customize_master.part.90
00010df0 l     F .text	000000e8 iotc_use_backup_master.constprop.118
000000c0 l       .rodata.str1.4	00000000 .LC14
000000d4 l       .rodata.str1.4	00000000 .LC15
000114d4 l     F .text	000000e4 updateVPGServerListDailyRoutine
000000e4 l       .rodata.str1.4	00000000 .LC16
00000104 l       .rodata.str1.4	00000000 .LC17
000146b0 l     F .text	0000030c _IOTC_SendDeviceLogin1
00014f00 l     F .text	00000308 _IOTC_SendDeviceOMWBed.constprop.116
00015208 l     F .text	00000248 SendDeviceOMWBedCB
00000108 l       .rodata.str1.4	00000000 .LC18
00000130 l       .rodata.str1.4	00000000 .LC19
0000013c l       .rodata.str1.4	00000000 .LC20
00017268 l     F .text	00000f30 IOTC_Handler_MSG_P2P_PUNCH_TO2.isra.96
00018198 l     F .text	000003d8 IOTC_Handler_MSG_P2P_PUNCH_TO.isra.97
00018570 l     F .text	00000234 LanSearchTaskCB
00000140 l       .rodata.str1.4	00000000 .LC21
00018ecc l     F .text	00000730 IOTC_Handler_MSG_P2P_KNOCK_RR.isra.102
000195fc l     F .text	000009a8 IOTC_Handler_MSG_P2P_KNOCK_R.isra.105
00019fa4 l     F .text	0000017c _IOTC_P2P_Connection_Check_Client.isra.106
0001a120 l     F .text	0000041c IOTC_Handler_MSG_P2P_PACKET_D2C
0001a730 l     F .text	0000058c IOTC_Handler_MSG_LAN_SEARCH.isra.108
0001b0e4 l     F .text	00000088 ResolveMasterAndStartQueryCB
0001b6a0 l     F .text	0000016c _UpdateUdpServerRelayRequestRStatus
0001b80c l     F .text	0000037c IOTC_Handler_MSG_RLY_REQUEST_R2
00000160 l       .rodata.str1.4	00000000 .LC22
0001ea6c l     F .text	0000044c udpConnectMonitor
0001eeb8 l     F .text	00000250 CheckDeviceOnLineCB
00000000 l    d  .rodata	00000000 .rodata
00000000 l     O .rodata	00000018 gTcpTryPort
00000018 l     O .rodata	00000008 gDetectPort
00000000 l    d  .data.rel.ro.local	00000000 .data.rel.ro.local
00000000 l     O .data.rel.ro.local	00000010 gDetectAddr
00000010 l     O .data.rel.ro.local	00000030 gMasterAddr
00000000 l     O .data	00000004 gSessionNum
00000004 l     O .data	00000002 gSearchPort
00000006 l     O .data	00000001 gbUDPBlocked
00000008 l     O .data	00000004 gnLANConnectionTimeout
0000000c l     O .data	00000004 gnSessionAliveTimeout
00000010 l     O .data	00000004 gnDetectNetworkTimeout
00000014 l     O .data	00000002 gnDeviceLoginDefaultPeriodSec
00000018 l     O .data	00000004 gnP2PConnectionTimeout
0000001c l     O .data	00000004 gQueryDeviceSec
00000020 l     O .data	00000001 gisAutoAppendMaster
00000000 l    d  .rodata.str1.4	00000000 .rodata.str1.4
00000000 l     O .bss	00000004 pConnMgr
00000004 l     O .bss	00000004 gDeviceInfoLock
00000008 l     O .bss	00001500 gDeviceInfo
00001508 l     O .bss	00000004 gVPGServerListLock
0000150c l     O .bss	00000380 gVPGServerList
0000188c l     O .bss	00000004 gTCPMasterConnLock
00001890 l     O .bss	00000004 gMasterStatusLock
00001894 l     O .bss	00000004 gMyNatType
00001898 l     O .bss	00000002 gPreNatPort
0000189c l     O .bss	00000080 __MyWanAddr2
0000191c l     O .bss	00000020 __MyWanAddr2Param
0000193c l     O .bss	00000004 __nPreNat3SamePort
00001940 l     O .bss	0000001c gMyUID
0000195c l     O .bss	00000004 gDeviceSearchTaskLock
00001960 l     O .bss	00000004 gSearchDeviceInfo
00001964 l     O .bss	00000004 gMaxSearchInfoArrayLen
00001968 l     O .bss	00000004 gLanDeviceNum
0000196c l     O .bss	00000001 gbSearchDeviceInfo
00001970 l     O .bss	00000004 gDeviceInfoIndex
00001974 l     O .bss	00000004 gLanSearch
00001978 l     O .bss	00000001 gbFlagDeviceLogin
0000197c l     O .bss	00000004 gRelayTcpConn
00001980 l     O .bss	00000010 gTcpRelayServerAddr
00001990 l     O .bss	00000004 geTcpConnectedServerStatus
00001994 l     O .bss	00000004 fpConnModeChange
00001998 l     O .bss	00000001 gbFlagUseTcpSocket
0000199c l     O .bss	00000004 gP2PConn
000019a0 l     O .bss	00000002 gTcpConnectedPort
000019a4 l     O .bss	00000010 gLocalAddr
000019b4 l     O .bss	00000002 gP2PLocalUdpPort
000019b6 l     O .bss	00000001 gbIsNetworkReachable
000019b7 l     O .bss	00000001 gbDetectNetworkCnt
000019b8 l     O .bss	00000004 gTryPortLock
000019bc l     O .bss	00000730 gP2PTryPortSkt
000020ec l     O .bss	00000004 gMasterResolveStatus
000020f0 l     O .bss	00000004 gMasterAddrLock
000020f4 l     O .bss	00000004 gP2PMasterAddrIndex
000020f8 l     O .bss	00000004 nTempNatType
000020fc l     O .bss	00000004 gLoginInfo
00002100 l     O .bss	00000004 gpLoginInfoCB
00002104 l     O .bss	00001010 gDeviceSessionInfo
00003114 l     O .bss	00000004 gLoginFailedCnt
00003118 l     O .bss	00000004 gnTCPConnectToServerCount
0000311c l     O .bss	00000004 gbReconnectIfAllFailed
00003120 l     O .bss	00000001 gEnableAutoWakeUp
00003124 l     O .bss	00000004 gnReconnectAfterMS
00003128 l     O .bss	00000004 gbReconnectTaskExecCount
0000312c l     O .bss	00000004 gLanSearchInfo
00003130 l     O .bss	00000004 gLanSearchInfo2
00003134 l     O .bss	00000004 gLanSearchAllList
00003138 l     O .bss	00000004 device_list_capacity.11599
0000313c l     O .bss	00000004 gbSearchAll
00003140 l     O .bss	00000001 gNeedAdvance
00003141 l     O .bss	00000001 gNotAdvance
00003142 l     O .bss	00000001 gbIsLite
00003144 l     O .bss	00000030 gSelfCapability
00003174 l     O .bss	00000001 gbForceUpdateServerList
00003175 l     O .bss	00000001 gbIamDevice
00003178 l     O .bss	00000004 gRecentClosedRandomIDLock
0000317c l     O .bss	00000004 gTryPortNodeID
00003180 l     O .bss	00000004 fptrGetLoginPacket
00003184 l     O .bss	00000004 gfptrLoginRSleep
00003188 l     O .bss	00000001 gbFlagInitialized
0000318c l     O .bss	00000004 gSessionTaskLock
00003190 l     O .bss	00000001 gbIsNetworkReachableNBStarted
00003194 l     O .bss	00000081 gDeviceName
00003218 l     O .bss	00000004 gbFlagServerHello
0000321c l     O .bss	00000004 gbClientRequestSecureSession
00003220 l     O .bss	00000004 __nP2PServerPortExtend
00003224 l     O .bss	00000010 ipV4.10653
00003234 l     O .bss	00000004 print_count.10664
00003238 l     O .bss	00000004 gSendLANSearchTaskLock
0000323c l     O .bss	00000001 gbFlagOnDebug
0000323e l     O .bss	00000002 gnInstanceID
00003240 l     O .bss	00000004 gnDiagHelloSerialNo
00003244 l     O .bss	00000004 gnHelloSerialNo
00003248 l     O .bss	00000001 gbStopConnect
00003249 l     O .bss	00000001 gbFlagUnLicensed
0000324a l     O .bss	00000001 gbDeviceIsBanned
0000324c l     O .bss	00000004 gnMaxPortChangedCount
00003250 l     O .bss	00000002 gnDeviceLoginPeriodSec
00003254 l     O .bss	00000200 gCustomizeMaster
00003454 l     O .bss	00000004 gResolvedMasterThreadLock
00003458 l     O .bss	00000002 gTcpConnServerDoneCnt
0000345a l     O .bss	00000001 gbListenCalled
0000345b l     O .bss	00000001 gbFlagListenExit
0000345c l     O .bss	00000004 gbTcpRelayMode
00003460 l     O .bss	00000001 gTryUIDErrorCnt
00003464 l     O .bss	00000004 gConnectLock
00003468 l     O .bss	00000004 gnWakeupSerialNum
0000346c l     O .bss	00000004 gnDeviceLoginSerialNo
00003470 l     O .bss	00000004 nSendLoginCount.11512
00003474 l     O .bss	00000001 gFixedPort
00003475 l     O .bss	00000001 gbIsPortChanged
00003476 l     O .bss	00000001 gOMWBedCallBackYet
00003478 l     O .bss	00000004 gfptrOMWSleepTimeoutCB
0000347c l     O .bss	00000001 gbOnlyDoSearchDevice
0000347d l     O .bss	00000001 gRecordOn
00003480 l     O .bss	00000030 gQueryCapability
000034b0 l     O .bss	00000004 gVPGServerListIndex
000034b4 l     O .bss	00000008 gtvConnectStart
000034bc l     O .bss	00000004 __nLanSearch_Random.11755
000034c0 l     O .bss	00000004 tickLast.14330
000034c4 l     O .bss	00000004 snClientRandomID.14451
000034c8 l     O .bss	00000001 is_customized_master_resolved.14455
000034cc l     O .bss	00000004 snClientRandomID.14483
000034d0 l     O .bss	00000004 snClientRandomID.14601
000034d4 l     O .bss	00000001 gbEnableErrorUpload
00000000 l    d  .note.GNU-stack	00000000 .note.GNU-stack
00000000 l    d  .comment	00000000 .comment
00000000 l    d  .ARM.attributes	00000000 .ARM.attributes
00000000         *UND*	00000000 pthread_mutex_lock
00000000         *UND*	00000000 pthread_mutex_unlock
00000004       O *COM*	00000004 gSessionLock
00003500 g     O .bss	00000004 gSessionInfo
00000000         *UND*	00000000 memset
000034fc g     O .bss	00000004 gPreSessionInfo
00000000         *UND*	00000000 inet_addr
00000000         *UND*	00000000 free
00000000         *UND*	00000000 tutk_TaskMng_Delete
000034f4 g     O .bss	00000004 gtSearchDeviceTask
000034ec g     O .bss	00000004 gnSearchDeviceChannelCount
000034e8 g     O .bss	00000004 gSearchDeviceCB
00000000         *UND*	00000000 memcpy
00000300       O *COM*	00000004 gP2PMasterAddrv6
00000000         *UND*	00000000 iotc_sockaddr_to_ip_string
00000000         *UND*	00000000 iotc_netaddr_put_content
00000000         *UND*	00000000 iotc_netaddr_get_content
00000000         *UND*	00000000 strcpy
00000000         *UND*	00000000 strchr
00000000         *UND*	00000000 strstr
00000000         *UND*	00000000 strlen
00000000         *UND*	00000000 strncpy
00000000         *UND*	00000000 tutk_TaskMng_Create
00000000         *UND*	00000000 gettimeofday
00000000         *UND*	00000000 IOTC_Reliable_NewReliance
00000000         *UND*	00000000 strncmp
00000000         *UND*	00000000 malloc
00000000         *UND*	00000000 usleep
00000000         *UND*	00000000 memcmp
00000000         *UND*	00000000 realloc
00000000         *UND*	00000000 calloc
00000000         *UND*	00000000 iotc_convert_to_IPv4_addr
00000000         *UND*	00000000 iotc_sockaddr_to_ip_addr
00000001       O *COM*	00000004 gProcEnvVar
00000000         *UND*	00000000 _GLOBAL_OFFSET_TABLE_
00000000         *UND*	00000000 setIOTC_Feature_Bitmap
0000632c g     F .text	00000030 RandomIDValueUpdate
0000635c g     F .text	00000070 RandomIDCompare
00000014       O *COM*	00000004 gTryPortList
00000000         *UND*	00000000 IOTC_Reliable_DestroyReliance
000034d8 g     O .bss	00000004 RecentClosedRandomIDList
00007444 g     F .text	0000003c IOTC_Register_LoginPacketCallback
00007480 g     F .text	00000024 IOTC_UnRegister_LoginPacketCallback
000074a4 g     F .text	0000003c IOTC_Register_LoginR_SleepCallback
000074e0 g     F .text	00000024 IOTC_UnRegister_LoginR_SleepCallback
00007504 g     F .text	00000018 IOTC_Set_Max_Session_Number
0000751c g     F .text	0000007c IOTC_Session_Set_CloseCb
00007598 g     F .text	00000084 IOTC_Session_Set_Channel_RcvCb
0000761c g     F .text	00000090 IOTC_Session_Set_Channel_RcvIdleCb
000076ac g     F .text	00000020 IOTC_Set_Anvance_Mode
000076cc g     F .text	0000002c IOTC_IsLiteMode
000076f8 g     F .text	00000038 make_ipv4_sockaddr
00007730 g     F .text	0000002c setIdleTimeOut
0000775c g     F .text	000000f8 breakTimeCallBack
00003528 g     O .bss	00000004 __gIotcRcvIdleFlag
00007854 g     F .text	00000080 SessionTaskAddNode
00007da4 g     F .text	00000190 SessionTaskCleanNodesWithType
00000000         *UND*	00000000 tlistHead
00000000         *UND*	00000000 tlistDestroy
00000000         *UND*	00000000 tlistLength
00008164 g     F .text	000000f4 SessionTaskDeleteNode
00008440 g     F .text	00000064 SessionTaskCleanAllNodes
000000a8 g     O .data	00000004 gsConnectOption
0000867c g     F .text	00000004 IOTC_Set_Log_Path
00008680 g     F .text	00000020 Luffy
000086a0 g     F .text	00000020 Zoro
000086c0 g     F .text	000000e0 iotc_SendMessage
00000068       O *COM*	00000004 gsLocalNetworkInfo
00000000         *UND*	00000000 __aeabi_uldivmod
00000000         *UND*	00000000 tutk_platform_rand
000034e4 g     O .bss	00000004 gTryPortTask
0000c030 g     F .text	00000060 ipAddrInt2Str
00000000         *UND*	00000000 sprintf
0000c090 g     F .text	0000028c Broadcast_Message_By_Netmask
00000000         *UND*	00000000 tutk_Net_GetInterfaceInfo
000034f0 g     O .bss	00000004 gnSendLANSearchCount
00001a90       O *COM*	00000004 gSendLANSearchArray
000034f8 g     O .bss	00000004 gtSendLANSearchTask
0000c6c4 g     F .text	0000010c __Fill_ReadBuf
0000c7d0 g     F .text	000000c8 IOTC_Check_Session_Status
00000000         *UND*	00000000 IOTC_Reliable_RecvPacket
0000cde8 g     F .text	00000030 is_valid_fd
00000000         *UND*	00000000 fcntl
00000000         *UND*	00000000 __errno
0000ce18 g     F .text	00000070 IOTC_Set_Device_Name
0000ce88 g     F .text	000000f0 _IOTC_Send_Punch_To
0000cf78 g     F .text	00000060 _GetSendPath
0000d954 g     F .text	000000c0 _IOTC_SendHello1
0000dccc g     F .text	000000c8 _IOTC_SendQuryDevice5
0000dd94 g     F .text	000000ac _IOTC_SendQuryDevice2
0000de40 g     F .text	00000040 _IsStopSearchDevice
0000e4b8 g     F .text	0000000c sendIOTC_Query_Device
0000f068 g     F .text	00000368 dailyUpdateSendQueryTask
0000fa4c g     F .text	00000110 IOTC_Send_WakeUp_Internal
00000000         *UND*	00000000 isIOTC_Feature_Enable
0000fb5c g     F .text	00000188 _CheckDeviceWANAddrLocked
0000fce4 g     F .text	00000054 _CheckDeviceWANAddr
00000000         *UND*	00000000 inet_aton
0000351c g     O .bss	00000004 gThread_Login
00010058 g     F .text	00000080 _IOTC_LAN_Connection_Check
000104bc g     F .text	000000d8 IOTC_Update_Server_ProtoVer
0001077c g     F .text	00000024 _IOTC_Packet_Handler_V6
00000000         *UND*	00000000 puts
000107a0 g     F .text	00000114 iotc_update_ip
00000000         *UND*	00000000 iotc_lookup_host
00000000         *UND*	00000000 iotc_free_host_list
00010bb4 g     F .text	00000084 resolve_customize_master
00010ed8 g     F .text	000001d8 iotc_resolve_master
00000024 g     O .data	00000084 master_name
000110b0 g     F .text	000000d4 iotc_thread_resolve_master_name_new
00000000         *UND*	00000000 tutk_platform_set_thread_name
00003530 g     O .bss	00000004 gbIsResolvedMasterThreadRunningCN
0000352c g     O .bss	00000004 gbIsResolvedMasterThreadRunningGLOBAL
00011184 g     F .text	00000140 iotc_resolve_master_all
00000000         *UND*	00000000 tutk_platform_CreateTask
000112c4 g     F .text	00000050 iotc_thread_resolve_master_name
00011314 g     F .text	0000014c IOTC_TcpConnectToMaster
00011460 g     F .text	00000074 IOTC_TcpConnectToMasterNB
000034dc g     O .bss	00000004 gbupdateVPGServerListDailyRoutineCalledOnce
00000000         *UND*	00000000 tlistNew
00000000         *UND*	00000000 tlistAppend
00003518 g     O .bss	00000004 gUpdateVPGTask
00011c3c g     F .text	0000017c _IOTC_Check_Server
00011db8 g     F .text	00000148 IOTC_Listen
00011f00 g     F .text	00000018 IOTC_Listen_Exit
00011f18 g     F .text	00000114 IOTC_Accept
0001202c g     F .text	00000168 IOTC_Get_Device_Status
00012194 g     F .text	00000048 _IsUIDVaild
000121dc g     F .text	00000014 IOTC_Setup_DetectNetwork_Timeout
000121f0 g     F .text	0000017c ReopenP2PSocket
0001236c g     F .text	00000040 IOTC_ReInitSocket
000123ac g     F .text	00000048 GenShortRandomID
00000000         *UND*	00000000 time
000123f4 g     F .text	00000018 IOTC_Connect_Stop
0001240c g     F .text	00000038 IOTC_Get_SessionID
00012444 g     F .text	000000a0 IOTC_Connect_Stop_BySID
000124e4 g     F .text	000006fc IOTC_Device_Login
00000030       O *COM*	00000004 gDeviceNamePWD
00003510 g     O .bss	00000004 gThread_KeepNAT
00012be0 g     F .text	00000360 IOTC_Device_LoginNB
00012f40 g     F .text	00000678 IOTC_DeInitialize
00000000         *UND*	00000000 tutk_SockTaskMng_DeInit
00000000         *UND*	00000000 pthread_mutex_destroy
00000000         *UND*	00000000 IOTC_Feature_Bitmap_Release
00000000         *UND*	00000000 pthread_join
00003514 g     O .bss	00000004 gRoutineTask
0000350c g     O .bss	00000004 gThread_SessionAlive
00003524 g     O .bss	00000004 gThread_recv_udp
00003504 g     O .bss	00000004 gThread_TryPort
000135b8 g     F .text	0000005c setCapability
00013614 g     F .text	00000068 setCapability2
0001367c g     F .text	00000074 PrintRecentClosedRandomID
00000000         *UND*	00000000 printf
000136f0 g     F .text	00000338 IOTC_Session_Close
00013a28 g     F .text	00000014 IOTC_Get_Version
00013a3c g     F .text	00000044 IOTC_Get_Login_Info
00013a80 g     F .text	00000018 IOTC_Get_Login_Info_ByCallBackFn
00013a98 g     F .text	00000348 IOTC_Session_Check_Ex
00000000         *UND*	00000000 tutk_platform_snprintf
00013de0 g     F .text	000000c0 IOTC_Session_Check
00013ea0 g     F .text	00000090 IOTC_Session_Check_ByCallBackFn
00013f30 g     F .text	000002b4 IOTC_Session_Read_Check_Lost
000141e4 g     F .text	0000002c IOTC_Session_Read
00014210 g     F .text	000000d4 IOTC_Session_Write
000142e4 g     F .text	000000f0 IOTC_Session_Channel_ON
000143d4 g     F .text	00000124 IOTC_Session_Channel_OFF
000144f8 g     F .text	000000ac IOTC_Session_Channel_Check_ON_OFF
000145a4 g     F .text	000000dc IOTC_Session_Get_Free_Channel
00014680 g     F .text	00000030 IOTC_Get_Nat_Type
00000000         *UND*	00000000 IOTC_WakeUp_ResponsedServerNum
00015450 g     F .text	00000074 RT
000154c4 g     F .text	00000038 AT
000154fc g     F .text	00000008 XD
00015504 g     F .text	00000170 IOTC_Lan_Search2
00015674 g     F .text	00000130 IOTC_Lan_Search2_Ex
000157a4 g     F .text	000001b8 IOTC_Lan_Search
0001595c g     F .text	000000a4 IOTC_Set_Partial_Encryption
00015a00 g     F .text	00000158 IOTC_Get_Capability
00015b58 g     F .text	00000018 IOTC_TCPRelayOnly_TurnOn
00015b70 g     F .text	00000014 IOTC_Setup_LANConnection_Timeout
00015b84 g     F .text	00000014 IOTC_Setup_P2PConnection_Timeout
00015b98 g     F .text	0000001c IOTC_Setup_Session_Alive_Timeout
00015bb4 g     F .text	00000060 IOTC_Get_Remote_ProtocolVersion
00015c14 g     F .text	00000010 IOTC_Session_Lock
00015c24 g     F .text	00000010 IOTC_Session_unLock
00015c34 g     F .text	0000006c UpdateLocalPort
00015ca0 g     F .text	000001fc UpdateLocalNetworkInfo
00000000         *UND*	00000000 sscanf
00003534 g     O .bss	00000004 gSetMACAddr
00000012       O *COM*	00000004 gstrV4MAC
00015e9c g     F .text	00000730 IOTC_Initialize_Internal
00000000         *UND*	00000000 tutk_platform_srand
00000000         *UND*	00000000 fopen
00000000         *UND*	00000000 fclose
00000000         *UND*	00000000 pthread_mutexattr_init
00000000         *UND*	00000000 pthread_mutexattr_settype
00000000         *UND*	00000000 pthread_mutex_init
00000000         *UND*	00000000 TConnManager_create
00000000         *UND*	00000000 tutk_SockTaskMng_Init
00000008       O *COM*	00000004 gtvLastConnectTime
000165cc g     F .text	000006b0 IOTC_Initialize2
00016c7c g     F .text	00000008 IOTC_Initialize
00016c84 g     F .text	000000a4 IOTC_Reliable_All_MSG_Is_Sent
00000000         *UND*	00000000 IOTC_Reliable_SendQueueIsEmpty
00016d28 g     F .text	00000190 IOTC_Session_Write_Reliable_NB
00000000         *UND*	00000000 IOTC_Reliable_AppendToQueue
00016eb8 g     F .text	000000f8 IOTC_Session_Write_Reliable_NB_Abort
00000000         *UND*	00000000 IOTC_Reliable_AbortToSend
00016fb0 g     F .text	00000058 AddSendLanSearchTask
00017008 g     F .text	00000260 AddSendLANSearch
000187a4 g     F .text	000000e0 IOTC_Search_Device_Stop
00018884 g     F .text	00000164 IOTC_Search_Device_Start
000189e8 g     F .text	00000130 IOTC_Search_Device_Result
00018b18 g     F .text	0000006c kevinTestDetectNetwork
00018b84 g     F .text	00000348 SendConnectResult
0001a53c g     F .text	0000019c SendConnectSuccess
0001a6d8 g     F .text	00000058 AddLanSearchPrecheckRTask
0001acbc g     F .text	000000ac AddLanSearchTask
0001ad68 g     F .text	0000037c AddUDPQueryDeviceInfoTask
0001b16c g     F .text	00000118 AddHelloServerTask
0001b284 g     F .text	0000012c AddUDPPreCheckTask
0001b3b0 g     F .text	00000220 AddUDPP2PConnectTask
0001b5d0 g     F .text	00000074 AddUDPRelayConnectTask
0001b644 g     F .text	0000005c AddUDPRelaySessionInfoRequestTask
0001bb88 g     F .text	00002438 _IOTC_Packet_Handler
0001e29c g     F .text	0000005c FindSID_BySessionInfo
0001e2f8 g     F .text	000003e0 CheckPreConnectState
0001e6d8 g     F .text	000000c4 CheckUDPParellelConnectState
0001e79c g     F .text	00000104 CheckUDPSequentialConnectState
0001e8a0 g     F .text	00000058 CheckTCPConnectState
0001e8f8 g     F .text	00000058 AddSendKnockRWhenDeviceNotResponseTask
0001e950 g     F .text	0000011c CheckConnectErrors
0001f108 g     F .text	00000124 RefreshNatStatus
0001f22c g     F .text	000000d8 IOTC_Resolve_MasterServer_Name
0001f304 g     F .text	000006dc IOTC_Connect_UDP
0001f9e0 g     F .text	00000008 IOTC_Connect_ByUID
0001f9e8 g     F .text	00000040 IOTC_Connect_ByUID_Parallel
0001fa28 g     F .text	00000330 IOTC_Connect_UDPNB
0001fd58 g     F .text	00000010 IOTC_Connect_ByUIDNB
0001fd68 g     F .text	00000054 IOTC_Connect_ByUID_ParallelNB
0001fdbc g     F .text	00000230 IOTC_Check_Device_On_Line
0001ffec g     F .text	0000005c IOTC_Set_Connection_Option
00020048 g     F .text	00000030 SendConnectErrorCode_inner
00020078 g     F .text	00000040 SendConnectErrorCodeBySession
000200b8 g     F .text	0000001c SendConnectErrorCodeBySID
000200d4 g     F .text	00000004 IOTC_SendErrorCode
000200d8 g     F .text	00000068 IOTC_SetMACAddr
00020140 g     F .text	0000002c IOTC_Set_LanSearchPort
0002016c g     F .text	0000001c IOTC_Setup_ErrorUpload
00020188 g     F .text	0000002c IOTC_ConnModeChange_CallBack
000201b4 g     F .text	000000c4 IOTC_Add_MasterServer
00020278 g     F .text	00000020 IOTC_Setup_Auto_WakeUp_Internal
00020298 g     F .text	000000c4 IOTC_Replace_LoginThread_With_OMWBedThread
0002035c g     F .text	00000034 IOTC_Get_RandomID32
00020390 g     F .text	000000c8 IOTC_Get_SleepingDevicePacket
000034e0 g     O .bss	00000004 countww
00003508 g     O .bss	00000004 gThread_QueryMaster
00003520 g     O .bss	00000004 gThread_recv_search



Disassembly of section .text:

00000000 <CloseAllDetectNetworkConnections>:
       0:	e92d40f8 	push	{r3, r4, r5, r6, r7, lr}
       4:	e59f3058 	ldr	r3, [pc, #88]	; 64 <CloseAllDetectNetworkConnections+0x64>
       8:	e08f3003 	add	r3, pc, r3
       c:	e5933000 	ldr	r3, [r3]
      10:	e3530000 	cmp	r3, #0
      14:	08bd80f8 	popeq	{r3, r4, r5, r6, r7, pc}
      18:	e59f6048 	ldr	r6, [pc, #72]	; 68 <CloseAllDetectNetworkConnections+0x68>
      1c:	e2804c0f 	add	r4, r0, #3840	; 0xf00
      20:	e08f6006 	add	r6, pc, r6
      24:	e2805ef1 	add	r5, r0, #3856	; 0xf10
      28:	e3a07000 	mov	r7, #0
      2c:	e5943000 	ldr	r3, [r4]
      30:	e2531000 	subs	r1, r3, #0
      34:	0a000006 	beq	54 <CloseAllDetectNetworkConnections+0x54>
      38:	e5960000 	ldr	r0, [r6]
      3c:	e5903000 	ldr	r3, [r0]
      40:	e593300c 	ldr	r3, [r3, #12]
      44:	e12fff33 	blx	r3
      48:	e3500000 	cmp	r0, #0
      4c:	b8bd80f8 	poplt	{r3, r4, r5, r6, r7, pc}
      50:	e5847000 	str	r7, [r4]
      54:	e2844004 	add	r4, r4, #4
      58:	e1540005 	cmp	r4, r5
      5c:	1afffff2 	bne	2c <CloseAllDetectNetworkConnections+0x2c>
      60:	e8bd80f8 	pop	{r3, r4, r5, r6, r7, pc}
      64:	00000054 	.word	0x00000054
			64: R_ARM_REL32	.bss
      68:	00000040 	.word	0x00000040
			68: R_ARM_REL32	.bss

0000006c <IOTC_TCPConnectToServerSetupNBFailCB>:
      6c:	e3e03000 	mvn	r3, #0
      70:	e582300c 	str	r3, [r2, #12]
      74:	e12fff1e 	bx	lr

00000078 <DetectNetworkReachableSetupFailCBNB>:
      78:	e59236bc 	ldr	r3, [r2, #1724]	; 0x6bc
      7c:	e3530000 	cmp	r3, #0
      80:	03a03002 	moveq	r3, #2
      84:	058236bc 	streq	r3, [r2, #1724]	; 0x6bc
      88:	012fff1e 	bxeq	lr
      8c:	e3530001 	cmp	r3, #1
      90:	13a03003 	movne	r3, #3
      94:	158236bc 	strne	r3, [r2, #1724]	; 0x6bc
      98:	e12fff1e 	bx	lr

0000009c <setupSuccessCallback>:
      9c:	e12fff1e 	bx	lr

000000a0 <setupFailedCallback>:
      a0:	e12fff1e 	bx	lr

000000a4 <CloseAllTcpServerConnections>:
      a4:	e92d40f8 	push	{r3, r4, r5, r6, r7, lr}
      a8:	e59f3050 	ldr	r3, [pc, #80]	; 100 <CloseAllTcpServerConnections+0x5c>
      ac:	e08f3003 	add	r3, pc, r3
      b0:	e5933000 	ldr	r3, [r3]
      b4:	e3530000 	cmp	r3, #0
      b8:	08bd80f8 	popeq	{r3, r4, r5, r6, r7, pc}
      bc:	e59f7040 	ldr	r7, [pc, #64]	; 104 <CloseAllTcpServerConnections+0x60>
      c0:	e1a04000 	mov	r4, r0
      c4:	e08f7007 	add	r7, pc, r7
      c8:	e2805b02 	add	r5, r0, #2048	; 0x800
      cc:	e3a06000 	mov	r6, #0
      d0:	e59416fc 	ldr	r1, [r4, #1788]	; 0x6fc
      d4:	e3510000 	cmp	r1, #0
      d8:	0a000004 	beq	f0 <CloseAllTcpServerConnections+0x4c>
      dc:	e5970000 	ldr	r0, [r7]
      e0:	e5903000 	ldr	r3, [r0]
      e4:	e593300c 	ldr	r3, [r3, #12]
      e8:	e12fff33 	blx	r3
      ec:	e58466fc 	str	r6, [r4, #1788]	; 0x6fc
      f0:	e2844040 	add	r4, r4, #64	; 0x40
      f4:	e1540005 	cmp	r4, r5
      f8:	1afffff4 	bne	d0 <CloseAllTcpServerConnections+0x2c>
      fc:	e8bd80f8 	pop	{r3, r4, r5, r6, r7, pc}
     100:	0000004c 	.word	0x0000004c
			100: R_ARM_REL32	.bss
     104:	00000038 	.word	0x00000038
			104: R_ARM_REL32	.bss

00000108 <CloseUnusedTcpServerConnections>:
     108:	e92d40f8 	push	{r3, r4, r5, r6, r7, lr}
     10c:	e59f3068 	ldr	r3, [pc, #104]	; 17c <CloseUnusedTcpServerConnections+0x74>
     110:	e08f3003 	add	r3, pc, r3
     114:	e5933000 	ldr	r3, [r3]
     118:	e3530000 	cmp	r3, #0
     11c:	08bd80f8 	popeq	{r3, r4, r5, r6, r7, pc}
     120:	e59f7058 	ldr	r7, [pc, #88]	; 180 <CloseUnusedTcpServerConnections+0x78>
     124:	e1a04000 	mov	r4, r0
     128:	e08f7007 	add	r7, pc, r7
     12c:	e2806b02 	add	r6, r0, #2048	; 0x800
     130:	ea000002 	b	140 <CloseUnusedTcpServerConnections+0x38>
     134:	e2844040 	add	r4, r4, #64	; 0x40
     138:	e1540006 	cmp	r4, r6
     13c:	0a00000d 	beq	178 <CloseUnusedTcpServerConnections+0x70>
     140:	e59416fc 	ldr	r1, [r4, #1788]	; 0x6fc
     144:	e3510000 	cmp	r1, #0
     148:	0afffff9 	beq	134 <CloseUnusedTcpServerConnections+0x2c>
     14c:	e5d45734 	ldrb	r5, [r4, #1844]	; 0x734
     150:	e3550000 	cmp	r5, #0
     154:	1afffff6 	bne	134 <CloseUnusedTcpServerConnections+0x2c>
     158:	e5970000 	ldr	r0, [r7]
     15c:	e2844040 	add	r4, r4, #64	; 0x40
     160:	e5903000 	ldr	r3, [r0]
     164:	e593300c 	ldr	r3, [r3, #12]
     168:	e12fff33 	blx	r3
     16c:	e58456bc 	str	r5, [r4, #1724]	; 0x6bc
     170:	e1540006 	cmp	r4, r6
     174:	1afffff1 	bne	140 <CloseUnusedTcpServerConnections+0x38>
     178:	e8bd80f8 	pop	{r3, r4, r5, r6, r7, pc}
     17c:	00000064 	.word	0x00000064
			17c: R_ARM_REL32	.bss
     180:	00000050 	.word	0x00000050
			180: R_ARM_REL32	.bss

00000184 <_TcpConnectDetectNetworkServerSetupSuccCB>:
     184:	e92d4038 	push	{r3, r4, r5, lr}
     188:	e59f3088 	ldr	r3, [pc, #136]	; 218 <_TcpConnectDetectNetworkServerSetupSuccCB+0x94>
     18c:	e08f3003 	add	r3, pc, r3
     190:	e5933000 	ldr	r3, [r3]
     194:	e3530000 	cmp	r3, #0
     198:	08bd8038 	popeq	{r3, r4, r5, pc}
     19c:	e591cf00 	ldr	ip, [r1, #3840]	; 0xf00
     1a0:	e3a02004 	mov	r2, #4
     1a4:	e15c0000 	cmp	ip, r0
     1a8:	e5812efc 	str	r2, [r1, #3836]	; 0xefc
     1ac:	0a000013 	beq	200 <_TcpConnectDetectNetworkServerSetupSuccCB+0x7c>
     1b0:	e5912f04 	ldr	r2, [r1, #3844]	; 0xf04
     1b4:	e1520000 	cmp	r2, r0
     1b8:	0a000012 	beq	208 <_TcpConnectDetectNetworkServerSetupSuccCB+0x84>
     1bc:	e5912f08 	ldr	r2, [r1, #3848]	; 0xf08
     1c0:	e1520000 	cmp	r2, r0
     1c4:	0a000011 	beq	210 <_TcpConnectDetectNetworkServerSetupSuccCB+0x8c>
     1c8:	e5912f0c 	ldr	r2, [r1, #3852]	; 0xf0c
     1cc:	e1520000 	cmp	r2, r0
     1d0:	03a05003 	moveq	r5, #3
     1d4:	18bd8038 	popne	{r3, r4, r5, pc}
     1d8:	e5932000 	ldr	r2, [r3]
     1dc:	e1a04001 	mov	r4, r1
     1e0:	e592200c 	ldr	r2, [r2, #12]
     1e4:	e1a01000 	mov	r1, r0
     1e8:	e1a00003 	mov	r0, r3
     1ec:	e12fff32 	blx	r2
     1f0:	e2855d0f 	add	r5, r5, #960	; 0x3c0
     1f4:	e3a03000 	mov	r3, #0
     1f8:	e7843105 	str	r3, [r4, r5, lsl #2]
     1fc:	e8bd8038 	pop	{r3, r4, r5, pc}
     200:	e3a05000 	mov	r5, #0
     204:	eafffff3 	b	1d8 <_TcpConnectDetectNetworkServerSetupSuccCB+0x54>
     208:	e3a05001 	mov	r5, #1
     20c:	eafffff1 	b	1d8 <_TcpConnectDetectNetworkServerSetupSuccCB+0x54>
     210:	e3a05002 	mov	r5, #2
     214:	eaffffef 	b	1d8 <_TcpConnectDetectNetworkServerSetupSuccCB+0x54>
     218:	00000084 	.word	0x00000084
			218: R_ARM_REL32	.bss

0000021c <_TcpConnectDetectNetworkServerSetupFailCB>:
     21c:	e92d4038 	push	{r3, r4, r5, lr}
     220:	e59f3080 	ldr	r3, [pc, #128]	; 2a8 <_TcpConnectDetectNetworkServerSetupFailCB+0x8c>
     224:	e08f3003 	add	r3, pc, r3
     228:	e5933000 	ldr	r3, [r3]
     22c:	e3530000 	cmp	r3, #0
     230:	08bd8038 	popeq	{r3, r4, r5, pc}
     234:	e5921f00 	ldr	r1, [r2, #3840]	; 0xf00
     238:	e1510000 	cmp	r1, r0
     23c:	0a000013 	beq	290 <_TcpConnectDetectNetworkServerSetupFailCB+0x74>
     240:	e5921f04 	ldr	r1, [r2, #3844]	; 0xf04
     244:	e1510000 	cmp	r1, r0
     248:	0a000012 	beq	298 <_TcpConnectDetectNetworkServerSetupFailCB+0x7c>
     24c:	e5921f08 	ldr	r1, [r2, #3848]	; 0xf08
     250:	e1510000 	cmp	r1, r0
     254:	0a000011 	beq	2a0 <_TcpConnectDetectNetworkServerSetupFailCB+0x84>
     258:	e5921f0c 	ldr	r1, [r2, #3852]	; 0xf0c
     25c:	e1510000 	cmp	r1, r0
     260:	03a05003 	moveq	r5, #3
     264:	18bd8038 	popne	{r3, r4, r5, pc}
     268:	e1a04002 	mov	r4, r2
     26c:	e5932000 	ldr	r2, [r3]
     270:	e1a01000 	mov	r1, r0
     274:	e592200c 	ldr	r2, [r2, #12]
     278:	e1a00003 	mov	r0, r3
     27c:	e12fff32 	blx	r2
     280:	e2855d0f 	add	r5, r5, #960	; 0x3c0
     284:	e3a03000 	mov	r3, #0
     288:	e7843105 	str	r3, [r4, r5, lsl #2]
     28c:	e8bd8038 	pop	{r3, r4, r5, pc}
     290:	e3a05000 	mov	r5, #0
     294:	eafffff3 	b	268 <_TcpConnectDetectNetworkServerSetupFailCB+0x4c>
     298:	e3a05001 	mov	r5, #1
     29c:	eafffff1 	b	268 <_TcpConnectDetectNetworkServerSetupFailCB+0x4c>
     2a0:	e3a05002 	mov	r5, #2
     2a4:	eaffffef 	b	268 <_TcpConnectDetectNetworkServerSetupFailCB+0x4c>
     2a8:	0000007c 	.word	0x0000007c
			2a8: R_ARM_REL32	.bss

000002ac <_TcpConnectServerSetupSuccCB>:
     2ac:	e1a02001 	mov	r2, r1
     2b0:	e3a03000 	mov	r3, #0
     2b4:	ea000002 	b	2c4 <_TcpConnectServerSetupSuccCB+0x18>
     2b8:	e2833001 	add	r3, r3, #1
     2bc:	e3530020 	cmp	r3, #32
     2c0:	0a00000e 	beq	300 <_TcpConnectServerSetupSuccCB+0x54>
     2c4:	e592c6fc 	ldr	ip, [r2, #1788]	; 0x6fc
     2c8:	e2822040 	add	r2, r2, #64	; 0x40
     2cc:	e15c0000 	cmp	ip, r0
     2d0:	1afffff8 	bne	2b8 <_TcpConnectServerSetupSuccCB+0xc>
     2d4:	e591264c 	ldr	r2, [r1, #1612]	; 0x64c
     2d8:	e0813303 	add	r3, r1, r3, lsl #6
     2dc:	e3520007 	cmp	r2, #7
     2e0:	03a02000 	moveq	r2, #0
     2e4:	0581266c 	streq	r2, [r1, #1644]	; 0x66c
     2e8:	03a0c009 	moveq	ip, #9
     2ec:	e3a02009 	mov	r2, #9
     2f0:	0581c64c 	streq	ip, [r1, #1612]	; 0x64c
     2f4:	e5810634 	str	r0, [r1, #1588]	; 0x634
     2f8:	e583272c 	str	r2, [r3, #1836]	; 0x72c
     2fc:	e12fff1e 	bx	lr
     300:	e12fff1e 	bx	lr

00000304 <_TcpConnectServerSetupFailCB>:
     304:	e92d4038 	push	{r3, r4, r5, lr}
     308:	e59f3120 	ldr	r3, [pc, #288]	; 430 <_TcpConnectServerSetupFailCB+0x12c>
     30c:	e08f3003 	add	r3, pc, r3
     310:	e5933000 	ldr	r3, [r3]
     314:	e3530000 	cmp	r3, #0
     318:	08bd8038 	popeq	{r3, r4, r5, pc}
     31c:	e59216fc 	ldr	r1, [r2, #1788]	; 0x6fc
     320:	e1510000 	cmp	r1, r0
     324:	0a00002b 	beq	3d8 <_TcpConnectServerSetupFailCB+0xd4>
     328:	e592173c 	ldr	r1, [r2, #1852]	; 0x73c
     32c:	e1510000 	cmp	r1, r0
     330:	0a00002a 	beq	3e0 <_TcpConnectServerSetupFailCB+0xdc>
     334:	e592177c 	ldr	r1, [r2, #1916]	; 0x77c
     338:	e1510000 	cmp	r1, r0
     33c:	0a000029 	beq	3e8 <_TcpConnectServerSetupFailCB+0xe4>
     340:	e59217bc 	ldr	r1, [r2, #1980]	; 0x7bc
     344:	e1510000 	cmp	r1, r0
     348:	0a000028 	beq	3f0 <_TcpConnectServerSetupFailCB+0xec>
     34c:	e59217fc 	ldr	r1, [r2, #2044]	; 0x7fc
     350:	e1510000 	cmp	r1, r0
     354:	0a000027 	beq	3f8 <_TcpConnectServerSetupFailCB+0xf4>
     358:	e592183c 	ldr	r1, [r2, #2108]	; 0x83c
     35c:	e1510000 	cmp	r1, r0
     360:	0a000026 	beq	400 <_TcpConnectServerSetupFailCB+0xfc>
     364:	e592187c 	ldr	r1, [r2, #2172]	; 0x87c
     368:	e1510000 	cmp	r1, r0
     36c:	0a000025 	beq	408 <_TcpConnectServerSetupFailCB+0x104>
     370:	e59218bc 	ldr	r1, [r2, #2236]	; 0x8bc
     374:	e1510000 	cmp	r1, r0
     378:	0a000024 	beq	410 <_TcpConnectServerSetupFailCB+0x10c>
     37c:	e59218fc 	ldr	r1, [r2, #2300]	; 0x8fc
     380:	e1510000 	cmp	r1, r0
     384:	0a000023 	beq	418 <_TcpConnectServerSetupFailCB+0x114>
     388:	e592193c 	ldr	r1, [r2, #2364]	; 0x93c
     38c:	e1510000 	cmp	r1, r0
     390:	0a000022 	beq	420 <_TcpConnectServerSetupFailCB+0x11c>
     394:	e592197c 	ldr	r1, [r2, #2428]	; 0x97c
     398:	e1510000 	cmp	r1, r0
     39c:	0a000021 	beq	428 <_TcpConnectServerSetupFailCB+0x124>
     3a0:	e59219bc 	ldr	r1, [r2, #2492]	; 0x9bc
     3a4:	e1510000 	cmp	r1, r0
     3a8:	03a0500b 	moveq	r5, #11
     3ac:	18bd8038 	popne	{r3, r4, r5, pc}
     3b0:	e1a04002 	mov	r4, r2
     3b4:	e5932000 	ldr	r2, [r3]
     3b8:	e1a01000 	mov	r1, r0
     3bc:	e592200c 	ldr	r2, [r2, #12]
     3c0:	e1a00003 	mov	r0, r3
     3c4:	e12fff32 	blx	r2
     3c8:	e0844305 	add	r4, r4, r5, lsl #6
     3cc:	e3a03000 	mov	r3, #0
     3d0:	e58436fc 	str	r3, [r4, #1788]	; 0x6fc
     3d4:	e8bd8038 	pop	{r3, r4, r5, pc}
     3d8:	e3a05000 	mov	r5, #0
     3dc:	eafffff3 	b	3b0 <_TcpConnectServerSetupFailCB+0xac>
     3e0:	e3a05001 	mov	r5, #1
     3e4:	eafffff1 	b	3b0 <_TcpConnectServerSetupFailCB+0xac>
     3e8:	e3a05002 	mov	r5, #2
     3ec:	eaffffef 	b	3b0 <_TcpConnectServerSetupFailCB+0xac>
     3f0:	e3a05003 	mov	r5, #3
     3f4:	eaffffed 	b	3b0 <_TcpConnectServerSetupFailCB+0xac>
     3f8:	e3a05004 	mov	r5, #4
     3fc:	eaffffeb 	b	3b0 <_TcpConnectServerSetupFailCB+0xac>
     400:	e3a05005 	mov	r5, #5
     404:	eaffffe9 	b	3b0 <_TcpConnectServerSetupFailCB+0xac>
     408:	e3a05006 	mov	r5, #6
     40c:	eaffffe7 	b	3b0 <_TcpConnectServerSetupFailCB+0xac>
     410:	e3a05007 	mov	r5, #7
     414:	eaffffe5 	b	3b0 <_TcpConnectServerSetupFailCB+0xac>
     418:	e3a05008 	mov	r5, #8
     41c:	eaffffe3 	b	3b0 <_TcpConnectServerSetupFailCB+0xac>
     420:	e3a05009 	mov	r5, #9
     424:	eaffffe1 	b	3b0 <_TcpConnectServerSetupFailCB+0xac>
     428:	e3a0500a 	mov	r5, #10
     42c:	eaffffdf 	b	3b0 <_TcpConnectServerSetupFailCB+0xac>
     430:	0000011c 	.word	0x0000011c
			430: R_ARM_REL32	.bss

00000434 <_TcpConnectMasterSetupFailCB>:
     434:	e92d4038 	push	{r3, r4, r5, lr}
     438:	e59f3124 	ldr	r3, [pc, #292]	; 564 <_TcpConnectMasterSetupFailCB+0x130>
     43c:	e08f3003 	add	r3, pc, r3
     440:	e5933000 	ldr	r3, [r3]
     444:	e3530000 	cmp	r3, #0
     448:	08bd8038 	popeq	{r3, r4, r5, pc}
     44c:	e5921574 	ldr	r1, [r2, #1396]	; 0x574
     450:	e1510000 	cmp	r1, r0
     454:	0a00002c 	beq	50c <_TcpConnectMasterSetupFailCB+0xd8>
     458:	e5921578 	ldr	r1, [r2, #1400]	; 0x578
     45c:	e1510000 	cmp	r1, r0
     460:	0a00002b 	beq	514 <_TcpConnectMasterSetupFailCB+0xe0>
     464:	e592157c 	ldr	r1, [r2, #1404]	; 0x57c
     468:	e1510000 	cmp	r1, r0
     46c:	0a00002a 	beq	51c <_TcpConnectMasterSetupFailCB+0xe8>
     470:	e5921580 	ldr	r1, [r2, #1408]	; 0x580
     474:	e1510000 	cmp	r1, r0
     478:	0a000029 	beq	524 <_TcpConnectMasterSetupFailCB+0xf0>
     47c:	e5921584 	ldr	r1, [r2, #1412]	; 0x584
     480:	e1510000 	cmp	r1, r0
     484:	0a000028 	beq	52c <_TcpConnectMasterSetupFailCB+0xf8>
     488:	e5921588 	ldr	r1, [r2, #1416]	; 0x588
     48c:	e1510000 	cmp	r1, r0
     490:	0a000027 	beq	534 <_TcpConnectMasterSetupFailCB+0x100>
     494:	e592158c 	ldr	r1, [r2, #1420]	; 0x58c
     498:	e1510000 	cmp	r1, r0
     49c:	0a000026 	beq	53c <_TcpConnectMasterSetupFailCB+0x108>
     4a0:	e5921590 	ldr	r1, [r2, #1424]	; 0x590
     4a4:	e1510000 	cmp	r1, r0
     4a8:	0a000025 	beq	544 <_TcpConnectMasterSetupFailCB+0x110>
     4ac:	e5921594 	ldr	r1, [r2, #1428]	; 0x594
     4b0:	e1510000 	cmp	r1, r0
     4b4:	0a000024 	beq	54c <_TcpConnectMasterSetupFailCB+0x118>
     4b8:	e5921598 	ldr	r1, [r2, #1432]	; 0x598
     4bc:	e1510000 	cmp	r1, r0
     4c0:	0a000023 	beq	554 <_TcpConnectMasterSetupFailCB+0x120>
     4c4:	e592159c 	ldr	r1, [r2, #1436]	; 0x59c
     4c8:	e1510000 	cmp	r1, r0
     4cc:	0a000022 	beq	55c <_TcpConnectMasterSetupFailCB+0x128>
     4d0:	e59215a0 	ldr	r1, [r2, #1440]	; 0x5a0
     4d4:	e1510000 	cmp	r1, r0
     4d8:	03a0500b 	moveq	r5, #11
     4dc:	18bd8038 	popne	{r3, r4, r5, pc}
     4e0:	e1a04002 	mov	r4, r2
     4e4:	e5932000 	ldr	r2, [r3]
     4e8:	e1a01000 	mov	r1, r0
     4ec:	e592200c 	ldr	r2, [r2, #12]
     4f0:	e1a00003 	mov	r0, r3
     4f4:	e2855f57 	add	r5, r5, #348	; 0x15c
     4f8:	e12fff32 	blx	r2
     4fc:	e0844105 	add	r4, r4, r5, lsl #2
     500:	e3a03000 	mov	r3, #0
     504:	e5843004 	str	r3, [r4, #4]
     508:	e8bd8038 	pop	{r3, r4, r5, pc}
     50c:	e3a05000 	mov	r5, #0
     510:	eafffff2 	b	4e0 <_TcpConnectMasterSetupFailCB+0xac>
     514:	e3a05001 	mov	r5, #1
     518:	eafffff0 	b	4e0 <_TcpConnectMasterSetupFailCB+0xac>
     51c:	e3a05002 	mov	r5, #2
     520:	eaffffee 	b	4e0 <_TcpConnectMasterSetupFailCB+0xac>
     524:	e3a05003 	mov	r5, #3
     528:	eaffffec 	b	4e0 <_TcpConnectMasterSetupFailCB+0xac>
     52c:	e3a05004 	mov	r5, #4
     530:	eaffffea 	b	4e0 <_TcpConnectMasterSetupFailCB+0xac>
     534:	e3a05005 	mov	r5, #5
     538:	eaffffe8 	b	4e0 <_TcpConnectMasterSetupFailCB+0xac>
     53c:	e3a05006 	mov	r5, #6
     540:	eaffffe6 	b	4e0 <_TcpConnectMasterSetupFailCB+0xac>
     544:	e3a05007 	mov	r5, #7
     548:	eaffffe4 	b	4e0 <_TcpConnectMasterSetupFailCB+0xac>
     54c:	e3a05008 	mov	r5, #8
     550:	eaffffe2 	b	4e0 <_TcpConnectMasterSetupFailCB+0xac>
     554:	e3a05009 	mov	r5, #9
     558:	eaffffe0 	b	4e0 <_TcpConnectMasterSetupFailCB+0xac>
     55c:	e3a0500a 	mov	r5, #10
     560:	eaffffde 	b	4e0 <_TcpConnectMasterSetupFailCB+0xac>
     564:	00000120 	.word	0x00000120
			564: R_ARM_REL32	.bss

00000568 <__Search_DeviceInfo>:
     568:	e92d4070 	push	{r4, r5, r6, lr}
     56c:	e59f5074 	ldr	r5, [pc, #116]	; 5e8 <__Search_DeviceInfo+0x80>
     570:	e1a04000 	mov	r4, r0
     574:	e08f5005 	add	r5, pc, r5
     578:	e2850004 	add	r0, r5, #4
     57c:	ebfffffe 	bl	0 <pthread_mutex_lock>
			57c: R_ARM_CALL	pthread_mutex_lock
     580:	e3a06000 	mov	r6, #0
     584:	e285e007 	add	lr, r5, #7
     588:	e284c013 	add	ip, r4, #19
     58c:	e2445001 	sub	r5, r4, #1
     590:	e1a03005 	mov	r3, r5
     594:	e1a0100e 	mov	r1, lr
     598:	e5f30001 	ldrb	r0, [r3, #1]!
     59c:	e5f12001 	ldrb	r2, [r1, #1]!
     5a0:	e1520000 	cmp	r2, r0
     5a4:	1a000009 	bne	5d0 <__Search_DeviceInfo+0x68>
     5a8:	e3520000 	cmp	r2, #0
     5ac:	0a000001 	beq	5b8 <__Search_DeviceInfo+0x50>
     5b0:	e153000c 	cmp	r3, ip
     5b4:	1afffff7 	bne	598 <__Search_DeviceInfo+0x30>
     5b8:	e59f002c 	ldr	r0, [pc, #44]	; 5ec <__Search_DeviceInfo+0x84>
     5bc:	e08f0000 	add	r0, pc, r0
     5c0:	e2800004 	add	r0, r0, #4
     5c4:	ebfffffe 	bl	0 <pthread_mutex_unlock>
			5c4: R_ARM_CALL	pthread_mutex_unlock
     5c8:	e1a00006 	mov	r0, r6
     5cc:	e8bd8070 	pop	{r4, r5, r6, pc}
     5d0:	e2866001 	add	r6, r6, #1
     5d4:	e3560040 	cmp	r6, #64	; 0x40
     5d8:	e28ee054 	add	lr, lr, #84	; 0x54
     5dc:	1affffeb 	bne	590 <__Search_DeviceInfo+0x28>
     5e0:	e3e06000 	mvn	r6, #0
     5e4:	eafffff3 	b	5b8 <__Search_DeviceInfo+0x50>
     5e8:	0000006c 	.word	0x0000006c
			5e8: R_ARM_REL32	.bss
     5ec:	00000028 	.word	0x00000028
			5ec: R_ARM_REL32	.bss

000005f0 <__Search_VPGServerList>:
     5f0:	e92d40f8 	push	{r3, r4, r5, r6, r7, lr}
     5f4:	e59f4084 	ldr	r4, [pc, #132]	; 680 <__Search_VPGServerList+0x90>
     5f8:	e1a05000 	mov	r5, r0
     5fc:	e08f4004 	add	r4, pc, r4
     600:	e2440eaf 	sub	r0, r4, #2800	; 0xaf0
     604:	e1a06001 	mov	r6, r1
     608:	e1a07002 	mov	r7, r2
     60c:	ebfffffe 	bl	0 <pthread_mutex_lock>
			60c: R_ARM_CALL	pthread_mutex_lock
     610:	e2443eae 	sub	r3, r4, #2784	; 0xae0
     614:	e243300c 	sub	r3, r3, #12
     618:	e3a04000 	mov	r4, #0
     61c:	ea000003 	b	630 <__Search_VPGServerList+0x40>
     620:	e2844001 	add	r4, r4, #1
     624:	e3540020 	cmp	r4, #32
     628:	e283301c 	add	r3, r3, #28
     62c:	0a000011 	beq	678 <__Search_VPGServerList+0x88>
     630:	e1d300b6 	ldrh	r0, [r3, #6]
     634:	e3500000 	cmp	r0, #0
     638:	0afffff8 	beq	620 <__Search_VPGServerList+0x30>
     63c:	e1d300b0 	ldrh	r0, [r3]
     640:	e1500005 	cmp	r0, r5
     644:	1afffff5 	bne	620 <__Search_VPGServerList+0x30>
     648:	e1d300b2 	ldrh	r0, [r3, #2]
     64c:	e1500006 	cmp	r0, r6
     650:	1afffff2 	bne	620 <__Search_VPGServerList+0x30>
     654:	e1d310b4 	ldrh	r1, [r3, #4]
     658:	e1510007 	cmp	r1, r7
     65c:	1affffef 	bne	620 <__Search_VPGServerList+0x30>
     660:	e59f001c 	ldr	r0, [pc, #28]	; 684 <__Search_VPGServerList+0x94>
     664:	e08f0000 	add	r0, pc, r0
     668:	e2400eaf 	sub	r0, r0, #2800	; 0xaf0
     66c:	ebfffffe 	bl	0 <pthread_mutex_unlock>
			66c: R_ARM_CALL	pthread_mutex_unlock
     670:	e1a00004 	mov	r0, r4
     674:	e8bd80f8 	pop	{r3, r4, r5, r6, r7, pc}
     678:	e3e04000 	mvn	r4, #0
     67c:	eafffff7 	b	660 <__Search_VPGServerList+0x70>
     680:	00002074 	.word	0x00002074
			680: R_ARM_REL32	.bss
     684:	00002010 	.word	0x00002010
			684: R_ARM_REL32	.bss

00000688 <_SearchServerListIndex>:
     688:	e92d4008 	push	{r3, lr}
     68c:	ebffffb5 	bl	568 <__Search_DeviceInfo>
     690:	e3500000 	cmp	r0, #0
     694:	ba000013 	blt	6e8 <_SearchServerListIndex+0x60>
     698:	e59f2050 	ldr	r2, [pc, #80]	; 6f0 <_SearchServerListIndex+0x68>
     69c:	e3a03054 	mov	r3, #84	; 0x54
     6a0:	e08f2002 	add	r2, pc, r2
     6a4:	e0202093 	mla	r0, r3, r0, r2
     6a8:	e2803048 	add	r3, r0, #72	; 0x48
     6ac:	e1d025b0 	ldrh	r2, [r0, #80]	; 0x50
     6b0:	e1d310b6 	ldrh	r1, [r3, #6]
     6b4:	e1d004bc 	ldrh	r0, [r0, #76]	; 0x4c
     6b8:	ebffffcc 	bl	5f0 <__Search_VPGServerList>
     6bc:	e3500000 	cmp	r0, #0
     6c0:	ba000008 	blt	6e8 <_SearchServerListIndex+0x60>
     6c4:	e59f2028 	ldr	r2, [pc, #40]	; 6f4 <_SearchServerListIndex+0x6c>
     6c8:	e0603180 	rsb	r3, r0, r0, lsl #3
     6cc:	e08f2002 	add	r2, pc, r2
     6d0:	e2422eae 	sub	r2, r2, #2784	; 0xae0
     6d4:	e0823103 	add	r3, r2, r3, lsl #2
     6d8:	e15330b6 	ldrh	r3, [r3, #-6]
     6dc:	e3530000 	cmp	r3, #0
     6e0:	0a000000 	beq	6e8 <_SearchServerListIndex+0x60>
     6e4:	e8bd8008 	pop	{r3, pc}
     6e8:	e3e00000 	mvn	r0, #0
     6ec:	e8bd8008 	pop	{r3, pc}
     6f0:	00000048 	.word	0x00000048
			6f0: R_ARM_REL32	.bss
     6f4:	00002018 	.word	0x00002018
			6f4: R_ARM_REL32	.bss

000006f8 <__IsExceedSession>:
     6f8:	e92d4038 	push	{r3, r4, r5, lr}
     6fc:	e59f5080 	ldr	r5, [pc, #128]	; 784 <__IsExceedSession+0x8c>
     700:	e79f5005 	ldr	r5, [pc, r5]
     704:	e1a00005 	mov	r0, r5
     708:	ebfffffe 	bl	0 <pthread_mutex_lock>
			708: R_ARM_CALL	pthread_mutex_lock
     70c:	e59f3074 	ldr	r3, [pc, #116]	; 788 <__IsExceedSession+0x90>
     710:	e79f0003 	ldr	r0, [pc, r3]
     714:	e3500000 	cmp	r0, #0
     718:	da000012 	ble	768 <__IsExceedSession+0x70>
     71c:	e59f3068 	ldr	r3, [pc, #104]	; 78c <__IsExceedSession+0x94>
     720:	e79f3003 	ldr	r3, [pc, r3]
     724:	e5933000 	ldr	r3, [r3]
     728:	e5d34019 	ldrb	r4, [r3, #25]
     72c:	e3540000 	cmp	r4, #0
     730:	0a00000d 	beq	76c <__IsExceedSession+0x74>
     734:	e2833a01 	add	r3, r3, #4096	; 0x1000
     738:	e2833029 	add	r3, r3, #41	; 0x29
     73c:	e3a02000 	mov	r2, #0
     740:	ea000003 	b	754 <__IsExceedSession+0x5c>
     744:	e5d11000 	ldrb	r1, [r1]
     748:	e2833010 	add	r3, r3, #16
     74c:	e3510000 	cmp	r1, #0
     750:	0a000009 	beq	77c <__IsExceedSession+0x84>
     754:	e2822001 	add	r2, r2, #1
     758:	e2833a01 	add	r3, r3, #4096	; 0x1000
     75c:	e1520000 	cmp	r2, r0
     760:	e2431a01 	sub	r1, r3, #4096	; 0x1000
     764:	1afffff6 	bne	744 <__IsExceedSession+0x4c>
     768:	e3a04001 	mov	r4, #1
     76c:	e1a00005 	mov	r0, r5
     770:	ebfffffe 	bl	0 <pthread_mutex_unlock>
			770: R_ARM_CALL	pthread_mutex_unlock
     774:	e1a00004 	mov	r0, r4
     778:	e8bd8038 	pop	{r3, r4, r5, pc}
     77c:	e1a04001 	mov	r4, r1
     780:	eafffff9 	b	76c <__IsExceedSession+0x74>
     784:	0000007c 	.word	0x0000007c
			784: R_ARM_GOT_PREL	gSessionLock
     788:	00000070 	.word	0x00000070
			788: R_ARM_REL32	.data
     78c:	00000064 	.word	0x00000064
			78c: R_ARM_GOT_PREL	gSessionInfo

00000790 <__Search_OnConnectSessionByUID>:
     790:	e92d40f8 	push	{r3, r4, r5, r6, r7, lr}
     794:	e59f60a4 	ldr	r6, [pc, #164]	; 840 <__Search_OnConnectSessionByUID+0xb0>
     798:	e1a05000 	mov	r5, r0
     79c:	e79f6006 	ldr	r6, [pc, r6]
     7a0:	e1a00006 	mov	r0, r6
     7a4:	ebfffffe 	bl	0 <pthread_mutex_lock>
			7a4: R_ARM_CALL	pthread_mutex_lock
     7a8:	e59f3094 	ldr	r3, [pc, #148]	; 844 <__Search_OnConnectSessionByUID+0xb4>
     7ac:	e79f7003 	ldr	r7, [pc, r3]
     7b0:	e3570000 	cmp	r7, #0
     7b4:	da00001e 	ble	834 <__Search_OnConnectSessionByUID+0xa4>
     7b8:	e59f3088 	ldr	r3, [pc, #136]	; 848 <__Search_OnConnectSessionByUID+0xb8>
     7bc:	e3a04000 	mov	r4, #0
     7c0:	e79f3003 	ldr	r3, [pc, r3]
     7c4:	e593c000 	ldr	ip, [r3]
     7c8:	e24cc001 	sub	ip, ip, #1
     7cc:	ea000004 	b	7e4 <__Search_OnConnectSessionByUID+0x54>
     7d0:	e2844001 	add	r4, r4, #1
     7d4:	e28cca01 	add	ip, ip, #4096	; 0x1000
     7d8:	e1540007 	cmp	r4, r7
     7dc:	e28cc010 	add	ip, ip, #16
     7e0:	0a000011 	beq	82c <__Search_OnConnectSessionByUID+0x9c>
     7e4:	e5dc301a 	ldrb	r3, [ip, #26]
     7e8:	e3530001 	cmp	r3, #1
     7ec:	1afffff7 	bne	7d0 <__Search_OnConnectSessionByUID+0x40>
     7f0:	e2451001 	sub	r1, r5, #1
     7f4:	e28ce014 	add	lr, ip, #20
     7f8:	e1a0300c 	mov	r3, ip
     7fc:	e5f30001 	ldrb	r0, [r3, #1]!
     800:	e5f12001 	ldrb	r2, [r1, #1]!
     804:	e1520000 	cmp	r2, r0
     808:	1afffff0 	bne	7d0 <__Search_OnConnectSessionByUID+0x40>
     80c:	e3520000 	cmp	r2, #0
     810:	0a000001 	beq	81c <__Search_OnConnectSessionByUID+0x8c>
     814:	e15e0003 	cmp	lr, r3
     818:	1afffff7 	bne	7fc <__Search_OnConnectSessionByUID+0x6c>
     81c:	e1a00006 	mov	r0, r6
     820:	ebfffffe 	bl	0 <pthread_mutex_unlock>
			820: R_ARM_CALL	pthread_mutex_unlock
     824:	e1a00004 	mov	r0, r4
     828:	e8bd80f8 	pop	{r3, r4, r5, r6, r7, pc}
     82c:	e3e04000 	mvn	r4, #0
     830:	eafffff9 	b	81c <__Search_OnConnectSessionByUID+0x8c>
     834:	03e04000 	mvneq	r4, #0
     838:	13a04000 	movne	r4, #0
     83c:	eafffff6 	b	81c <__Search_OnConnectSessionByUID+0x8c>
     840:	0000009c 	.word	0x0000009c
			840: R_ARM_GOT_PREL	gSessionLock
     844:	00000090 	.word	0x00000090
			844: R_ARM_REL32	.data
     848:	00000080 	.word	0x00000080
			848: R_ARM_GOT_PREL	gSessionInfo

0000084c <IOTC_TcpConnectToMasterTryPortSetupFailCB>:
     84c:	e92d40f8 	push	{r3, r4, r5, r6, r7, lr}
     850:	e59f3184 	ldr	r3, [pc, #388]	; 9dc <IOTC_TcpConnectToMasterTryPortSetupFailCB+0x190>
     854:	e08f3003 	add	r3, pc, r3
     858:	e5933000 	ldr	r3, [r3]
     85c:	e3530000 	cmp	r3, #0
     860:	08bd80f8 	popeq	{r3, r4, r5, r6, r7, pc}
     864:	e5923574 	ldr	r3, [r2, #1396]	; 0x574
     868:	e1a04002 	mov	r4, r2
     86c:	e1530000 	cmp	r3, r0
     870:	e1a05000 	mov	r5, r0
     874:	0a000044 	beq	98c <IOTC_TcpConnectToMasterTryPortSetupFailCB+0x140>
     878:	e5923578 	ldr	r3, [r2, #1400]	; 0x578
     87c:	e1530000 	cmp	r3, r0
     880:	0a000043 	beq	994 <IOTC_TcpConnectToMasterTryPortSetupFailCB+0x148>
     884:	e592357c 	ldr	r3, [r2, #1404]	; 0x57c
     888:	e1530000 	cmp	r3, r0
     88c:	0a000042 	beq	99c <IOTC_TcpConnectToMasterTryPortSetupFailCB+0x150>
     890:	e5923580 	ldr	r3, [r2, #1408]	; 0x580
     894:	e1530000 	cmp	r3, r0
     898:	0a000041 	beq	9a4 <IOTC_TcpConnectToMasterTryPortSetupFailCB+0x158>
     89c:	e5923584 	ldr	r3, [r2, #1412]	; 0x584
     8a0:	e1530000 	cmp	r3, r0
     8a4:	0a000040 	beq	9ac <IOTC_TcpConnectToMasterTryPortSetupFailCB+0x160>
     8a8:	e5923588 	ldr	r3, [r2, #1416]	; 0x588
     8ac:	e1530000 	cmp	r3, r0
     8b0:	0a00003f 	beq	9b4 <IOTC_TcpConnectToMasterTryPortSetupFailCB+0x168>
     8b4:	e592358c 	ldr	r3, [r2, #1420]	; 0x58c
     8b8:	e1530000 	cmp	r3, r0
     8bc:	0a00003e 	beq	9bc <IOTC_TcpConnectToMasterTryPortSetupFailCB+0x170>
     8c0:	e5923590 	ldr	r3, [r2, #1424]	; 0x590
     8c4:	e1530000 	cmp	r3, r0
     8c8:	0a00003d 	beq	9c4 <IOTC_TcpConnectToMasterTryPortSetupFailCB+0x178>
     8cc:	e5923594 	ldr	r3, [r2, #1428]	; 0x594
     8d0:	e1530000 	cmp	r3, r0
     8d4:	0a00003c 	beq	9cc <IOTC_TcpConnectToMasterTryPortSetupFailCB+0x180>
     8d8:	e5923598 	ldr	r3, [r2, #1432]	; 0x598
     8dc:	e1530000 	cmp	r3, r0
     8e0:	0a00003b 	beq	9d4 <IOTC_TcpConnectToMasterTryPortSetupFailCB+0x188>
     8e4:	e592359c 	ldr	r3, [r2, #1436]	; 0x59c
     8e8:	e1530000 	cmp	r3, r0
     8ec:	0a00000f 	beq	930 <IOTC_TcpConnectToMasterTryPortSetupFailCB+0xe4>
     8f0:	e59235a0 	ldr	r3, [r2, #1440]	; 0x5a0
     8f4:	e1530000 	cmp	r3, r0
     8f8:	03a0700b 	moveq	r7, #11
     8fc:	0a00000c 	beq	934 <IOTC_TcpConnectToMasterTryPortSetupFailCB+0xe8>
     900:	e59f50d8 	ldr	r5, [pc, #216]	; 9e0 <IOTC_TcpConnectToMasterTryPortSetupFailCB+0x194>
     904:	e08f5005 	add	r5, pc, r5
     908:	e2455e76 	sub	r5, r5, #1888	; 0x760
     90c:	e2455008 	sub	r5, r5, #8
     910:	e1a00005 	mov	r0, r5
     914:	ebfffffe 	bl	0 <pthread_mutex_lock>
			914: R_ARM_CALL	pthread_mutex_lock
     918:	e5d43571 	ldrb	r3, [r4, #1393]	; 0x571
     91c:	e1a00005 	mov	r0, r5
     920:	e2433001 	sub	r3, r3, #1
     924:	e5c43571 	strb	r3, [r4, #1393]	; 0x571
     928:	e8bd40f8 	pop	{r3, r4, r5, r6, r7, lr}
     92c:	eafffffe 	b	0 <pthread_mutex_unlock>
			92c: R_ARM_JUMP24	pthread_mutex_unlock
     930:	e3a0700a 	mov	r7, #10
     934:	e59f60a8 	ldr	r6, [pc, #168]	; 9e4 <IOTC_TcpConnectToMasterTryPortSetupFailCB+0x198>
     938:	e08f6006 	add	r6, pc, r6
     93c:	e2466e76 	sub	r6, r6, #1888	; 0x760
     940:	e246600c 	sub	r6, r6, #12
     944:	e1a00006 	mov	r0, r6
     948:	ebfffffe 	bl	0 <pthread_mutex_lock>
			948: R_ARM_CALL	pthread_mutex_lock
     94c:	e59f2094 	ldr	r2, [pc, #148]	; 9e8 <IOTC_TcpConnectToMasterTryPortSetupFailCB+0x19c>
     950:	e1a01005 	mov	r1, r5
     954:	e08f2002 	add	r2, pc, r2
     958:	e5920000 	ldr	r0, [r2]
     95c:	e5903000 	ldr	r3, [r0]
     960:	e593300c 	ldr	r3, [r3, #12]
     964:	e12fff33 	blx	r3
     968:	e2872f57 	add	r2, r7, #348	; 0x15c
     96c:	e3a01000 	mov	r1, #0
     970:	e0842102 	add	r2, r4, r2, lsl #2
     974:	e0843007 	add	r3, r4, r7
     978:	e5c315a4 	strb	r1, [r3, #1444]	; 0x5a4
     97c:	e1a00006 	mov	r0, r6
     980:	e5821004 	str	r1, [r2, #4]
     984:	ebfffffe 	bl	0 <pthread_mutex_unlock>
			984: R_ARM_CALL	pthread_mutex_unlock
     988:	eaffffdc 	b	900 <IOTC_TcpConnectToMasterTryPortSetupFailCB+0xb4>
     98c:	e3a07000 	mov	r7, #0
     990:	eaffffe7 	b	934 <IOTC_TcpConnectToMasterTryPortSetupFailCB+0xe8>
     994:	e3a07001 	mov	r7, #1
     998:	eaffffe5 	b	934 <IOTC_TcpConnectToMasterTryPortSetupFailCB+0xe8>
     99c:	e3a07002 	mov	r7, #2
     9a0:	eaffffe3 	b	934 <IOTC_TcpConnectToMasterTryPortSetupFailCB+0xe8>
     9a4:	e3a07003 	mov	r7, #3
     9a8:	eaffffe1 	b	934 <IOTC_TcpConnectToMasterTryPortSetupFailCB+0xe8>
     9ac:	e3a07004 	mov	r7, #4
     9b0:	eaffffdf 	b	934 <IOTC_TcpConnectToMasterTryPortSetupFailCB+0xe8>
     9b4:	e3a07005 	mov	r7, #5
     9b8:	eaffffdd 	b	934 <IOTC_TcpConnectToMasterTryPortSetupFailCB+0xe8>
     9bc:	e3a07006 	mov	r7, #6
     9c0:	eaffffdb 	b	934 <IOTC_TcpConnectToMasterTryPortSetupFailCB+0xe8>
     9c4:	e3a07007 	mov	r7, #7
     9c8:	eaffffd9 	b	934 <IOTC_TcpConnectToMasterTryPortSetupFailCB+0xe8>
     9cc:	e3a07008 	mov	r7, #8
     9d0:	eaffffd7 	b	934 <IOTC_TcpConnectToMasterTryPortSetupFailCB+0xe8>
     9d4:	e3a07009 	mov	r7, #9
     9d8:	eaffffd5 	b	934 <IOTC_TcpConnectToMasterTryPortSetupFailCB+0xe8>
     9dc:	00000180 	.word	0x00000180
			9dc: R_ARM_REL32	.bss
     9e0:	000020cc 	.word	0x000020cc
			9e0: R_ARM_REL32	.bss
     9e4:	0000209c 	.word	0x0000209c
			9e4: R_ARM_REL32	.bss
     9e8:	0000008c 	.word	0x0000008c
			9e8: R_ARM_REL32	.bss

000009ec <__GetNotYetReturnConnectedSession>:
     9ec:	e92d4038 	push	{r3, r4, r5, lr}
     9f0:	e59f508c 	ldr	r5, [pc, #140]	; a84 <__GetNotYetReturnConnectedSession+0x98>
     9f4:	e79f5005 	ldr	r5, [pc, r5]
     9f8:	e1a00005 	mov	r0, r5
     9fc:	ebfffffe 	bl	0 <pthread_mutex_lock>
			9fc: R_ARM_CALL	pthread_mutex_lock
     a00:	e59f3080 	ldr	r3, [pc, #128]	; a88 <__GetNotYetReturnConnectedSession+0x9c>
     a04:	e79f0003 	ldr	r0, [pc, r3]
     a08:	e3500000 	cmp	r0, #0
     a0c:	da000017 	ble	a70 <__GetNotYetReturnConnectedSession+0x84>
     a10:	e59f3074 	ldr	r3, [pc, #116]	; a8c <__GetNotYetReturnConnectedSession+0xa0>
     a14:	e3a04000 	mov	r4, #0
     a18:	e79f3003 	ldr	r3, [pc, r3]
     a1c:	e5932000 	ldr	r2, [r3]
     a20:	e5d23019 	ldrb	r3, [r2, #25]
     a24:	e2821a01 	add	r1, r2, #4096	; 0x1000
     a28:	e2433002 	sub	r3, r3, #2
     a2c:	e3530002 	cmp	r3, #2
     a30:	8a000005 	bhi	a4c <__GetNotYetReturnConnectedSession+0x60>
     a34:	e5d23627 	ldrb	r3, [r2, #1575]	; 0x627
     a38:	e3530000 	cmp	r3, #0
     a3c:	1a000002 	bne	a4c <__GetNotYetReturnConnectedSession+0x60>
     a40:	e592301c 	ldr	r3, [r2, #28]
     a44:	e3530001 	cmp	r3, #1
     a48:	0a00000b 	beq	a7c <__GetNotYetReturnConnectedSession+0x90>
     a4c:	e2844001 	add	r4, r4, #1
     a50:	e1540000 	cmp	r4, r0
     a54:	e2812010 	add	r2, r1, #16
     a58:	1afffff0 	bne	a20 <__GetNotYetReturnConnectedSession+0x34>
     a5c:	e3e04000 	mvn	r4, #0
     a60:	e1a00005 	mov	r0, r5
     a64:	ebfffffe 	bl	0 <pthread_mutex_unlock>
			a64: R_ARM_CALL	pthread_mutex_unlock
     a68:	e1a00004 	mov	r0, r4
     a6c:	e8bd8038 	pop	{r3, r4, r5, pc}
     a70:	03e04000 	mvneq	r4, #0
     a74:	13a04000 	movne	r4, #0
     a78:	eafffff8 	b	a60 <__GetNotYetReturnConnectedSession+0x74>
     a7c:	e5c23627 	strb	r3, [r2, #1575]	; 0x627
     a80:	eafffff6 	b	a60 <__GetNotYetReturnConnectedSession+0x74>
     a84:	00000088 	.word	0x00000088
			a84: R_ARM_GOT_PREL	gSessionLock
     a88:	0000007c 	.word	0x0000007c
			a88: R_ARM_REL32	.data
     a8c:	0000006c 	.word	0x0000006c
			a8c: R_ARM_GOT_PREL	gSessionInfo

00000a90 <__Search_SessionByUID>:
     a90:	e92d40f8 	push	{r3, r4, r5, r6, r7, lr}
     a94:	e59f60a4 	ldr	r6, [pc, #164]	; b40 <__Search_SessionByUID+0xb0>
     a98:	e1a05000 	mov	r5, r0
     a9c:	e79f6006 	ldr	r6, [pc, r6]
     aa0:	e1a00006 	mov	r0, r6
     aa4:	ebfffffe 	bl	0 <pthread_mutex_lock>
			aa4: R_ARM_CALL	pthread_mutex_lock
     aa8:	e59f3094 	ldr	r3, [pc, #148]	; b44 <__Search_SessionByUID+0xb4>
     aac:	e79f7003 	ldr	r7, [pc, r3]
     ab0:	e3570000 	cmp	r7, #0
     ab4:	da00001e 	ble	b34 <__Search_SessionByUID+0xa4>
     ab8:	e59f3088 	ldr	r3, [pc, #136]	; b48 <__Search_SessionByUID+0xb8>
     abc:	e3a04000 	mov	r4, #0
     ac0:	e79f3003 	ldr	r3, [pc, r3]
     ac4:	e593c000 	ldr	ip, [r3]
     ac8:	e24cc001 	sub	ip, ip, #1
     acc:	ea000004 	b	ae4 <__Search_SessionByUID+0x54>
     ad0:	e2844001 	add	r4, r4, #1
     ad4:	e28cca01 	add	ip, ip, #4096	; 0x1000
     ad8:	e1540007 	cmp	r4, r7
     adc:	e28cc010 	add	ip, ip, #16
     ae0:	0a000011 	beq	b2c <__Search_SessionByUID+0x9c>
     ae4:	e5dc301a 	ldrb	r3, [ip, #26]
     ae8:	e3530002 	cmp	r3, #2
     aec:	1afffff7 	bne	ad0 <__Search_SessionByUID+0x40>
     af0:	e2451001 	sub	r1, r5, #1
     af4:	e28ce014 	add	lr, ip, #20
     af8:	e1a0300c 	mov	r3, ip
     afc:	e5f30001 	ldrb	r0, [r3, #1]!
     b00:	e5f12001 	ldrb	r2, [r1, #1]!
     b04:	e1520000 	cmp	r2, r0
     b08:	1afffff0 	bne	ad0 <__Search_SessionByUID+0x40>
     b0c:	e3520000 	cmp	r2, #0
     b10:	0a000001 	beq	b1c <__Search_SessionByUID+0x8c>
     b14:	e15e0003 	cmp	lr, r3
     b18:	1afffff7 	bne	afc <__Search_SessionByUID+0x6c>
     b1c:	e1a00006 	mov	r0, r6
     b20:	ebfffffe 	bl	0 <pthread_mutex_unlock>
			b20: R_ARM_CALL	pthread_mutex_unlock
     b24:	e1a00004 	mov	r0, r4
     b28:	e8bd80f8 	pop	{r3, r4, r5, r6, r7, pc}
     b2c:	e3e04000 	mvn	r4, #0
     b30:	eafffff9 	b	b1c <__Search_SessionByUID+0x8c>
     b34:	03e04000 	mvneq	r4, #0
     b38:	13a04000 	movne	r4, #0
     b3c:	eafffff6 	b	b1c <__Search_SessionByUID+0x8c>
     b40:	0000009c 	.word	0x0000009c
			b40: R_ARM_GOT_PREL	gSessionLock
     b44:	00000090 	.word	0x00000090
			b44: R_ARM_REL32	.data
     b48:	00000080 	.word	0x00000080
			b48: R_ARM_GOT_PREL	gSessionInfo

00000b4c <__Get_Free_PreSession>:
     b4c:	e92d4070 	push	{r4, r5, r6, lr}
     b50:	e59f6064 	ldr	r6, [pc, #100]	; bbc <__Get_Free_PreSession+0x70>
     b54:	e3a05000 	mov	r5, #0
     b58:	e79f6006 	ldr	r6, [pc, r6]
     b5c:	e1a00006 	mov	r0, r6
     b60:	ebfffffe 	bl	0 <pthread_mutex_lock>
			b60: R_ARM_CALL	pthread_mutex_lock
     b64:	e59f3054 	ldr	r3, [pc, #84]	; bc0 <__Get_Free_PreSession+0x74>
     b68:	e79f3003 	ldr	r3, [pc, r3]
     b6c:	e5934000 	ldr	r4, [r3]
     b70:	e5d41019 	ldrb	r1, [r4, #25]
     b74:	e3510000 	cmp	r1, #0
     b78:	0a000008 	beq	ba0 <__Get_Free_PreSession+0x54>
     b7c:	e2855001 	add	r5, r5, #1
     b80:	e3550080 	cmp	r5, #128	; 0x80
     b84:	e2844050 	add	r4, r4, #80	; 0x50
     b88:	1afffff8 	bne	b70 <__Get_Free_PreSession+0x24>
     b8c:	e3e05000 	mvn	r5, #0
     b90:	e1a00006 	mov	r0, r6
     b94:	ebfffffe 	bl	0 <pthread_mutex_unlock>
			b94: R_ARM_CALL	pthread_mutex_unlock
     b98:	e1a00005 	mov	r0, r5
     b9c:	e8bd8070 	pop	{r4, r5, r6, pc}
     ba0:	e1a00004 	mov	r0, r4
     ba4:	e3a02050 	mov	r2, #80	; 0x50
     ba8:	ebfffffe 	bl	0 <memset>
			ba8: R_ARM_CALL	memset
     bac:	e3a03001 	mov	r3, #1
     bb0:	e5c43019 	strb	r3, [r4, #25]
     bb4:	e5c43018 	strb	r3, [r4, #24]
     bb8:	eafffff4 	b	b90 <__Get_Free_PreSession+0x44>
     bbc:	0000005c 	.word	0x0000005c
			bbc: R_ARM_GOT_PREL	gSessionLock
     bc0:	00000050 	.word	0x00000050
			bc0: R_ARM_GOT_PREL	gPreSessionInfo

00000bc4 <_ReleasePreSession>:
     bc4:	e92d4038 	push	{r3, r4, r5, lr}
     bc8:	e59f4028 	ldr	r4, [pc, #40]	; bf8 <_ReleasePreSession+0x34>
     bcc:	e1a05000 	mov	r5, r0
     bd0:	e79f4004 	ldr	r4, [pc, r4]
     bd4:	e1a00004 	mov	r0, r4
     bd8:	ebfffffe 	bl	0 <pthread_mutex_lock>
			bd8: R_ARM_CALL	pthread_mutex_lock
     bdc:	e1a00005 	mov	r0, r5
     be0:	e3a01000 	mov	r1, #0
     be4:	e3a02050 	mov	r2, #80	; 0x50
     be8:	ebfffffe 	bl	0 <memset>
			be8: R_ARM_CALL	memset
     bec:	e1a00004 	mov	r0, r4
     bf0:	e8bd4038 	pop	{r3, r4, r5, lr}
     bf4:	eafffffe 	b	0 <pthread_mutex_unlock>
			bf4: R_ARM_JUMP24	pthread_mutex_unlock
     bf8:	00000020 	.word	0x00000020
			bf8: R_ARM_GOT_PREL	gSessionLock

00000bfc <__RemoteSiteClose_Session>:
     bfc:	e3500000 	cmp	r0, #0
     c00:	b12fff1e 	bxlt	lr
     c04:	e92d43f0 	push	{r4, r5, r6, r7, r8, r9, lr}
     c08:	e59f80c0 	ldr	r8, [pc, #192]	; cd0 <__RemoteSiteClose_Session+0xd4>
     c0c:	e0803400 	add	r3, r0, r0, lsl #8
     c10:	e79f8008 	ldr	r8, [pc, r8]
     c14:	e1a05203 	lsl	r5, r3, #4
     c18:	e5989000 	ldr	r9, [r8]
     c1c:	e24dd00c 	sub	sp, sp, #12
     c20:	e0894005 	add	r4, r9, r5
     c24:	e5d43019 	ldrb	r3, [r4, #25]
     c28:	e3530002 	cmp	r3, #2
     c2c:	0a000001 	beq	c38 <__RemoteSiteClose_Session+0x3c>
     c30:	e28dd00c 	add	sp, sp, #12
     c34:	e8bd83f0 	pop	{r4, r5, r6, r7, r8, r9, pc}
     c38:	e3a03000 	mov	r3, #0
     c3c:	e3a01003 	mov	r1, #3
     c40:	e2842e61 	add	r2, r4, #1552	; 0x610
     c44:	e5c41019 	strb	r1, [r4, #25]
     c48:	e1a06000 	mov	r6, r0
     c4c:	e1c230b6 	strh	r3, [r2, #6]
     c50:	e1a01003 	mov	r1, r3
     c54:	e2840052 	add	r0, r4, #82	; 0x52
     c58:	e3a02040 	mov	r2, #64	; 0x40
     c5c:	ebfffffe 	bl	0 <memset>
			c5c: R_ARM_CALL	memset
     c60:	e5943564 	ldr	r3, [r4, #1380]	; 0x564
     c64:	e3530000 	cmp	r3, #0
     c68:	0a000003 	beq	c7c <__RemoteSiteClose_Session+0x80>
     c6c:	e1a00006 	mov	r0, r6
     c70:	e3e01015 	mvn	r1, #21
     c74:	e12fff33 	blx	r3
     c78:	e5989000 	ldr	r9, [r8]
     c7c:	e3a04000 	mov	r4, #0
     c80:	e3e07015 	mvn	r7, #21
     c84:	ea000000 	b	c8c <__RemoteSiteClose_Session+0x90>
     c88:	e5989000 	ldr	r9, [r8]
     c8c:	e284c0d8 	add	ip, r4, #216	; 0xd8
     c90:	e089c10c 	add	ip, r9, ip, lsl #2
     c94:	e08cc005 	add	ip, ip, r5
     c98:	e59cc004 	ldr	ip, [ip, #4]
     c9c:	e3a02000 	mov	r2, #0
     ca0:	e15c0002 	cmp	ip, r2
     ca4:	e20410ff 	and	r1, r4, #255	; 0xff
     ca8:	e1a00006 	mov	r0, r6
     cac:	e1a03002 	mov	r3, r2
     cb0:	e2844001 	add	r4, r4, #1
     cb4:	0a000001 	beq	cc0 <__RemoteSiteClose_Session+0xc4>
     cb8:	e58d7000 	str	r7, [sp]
     cbc:	e12fff3c 	blx	ip
     cc0:	e3540020 	cmp	r4, #32
     cc4:	1affffef 	bne	c88 <__RemoteSiteClose_Session+0x8c>
     cc8:	e28dd00c 	add	sp, sp, #12
     ccc:	e8bd83f0 	pop	{r4, r5, r6, r7, r8, r9, pc}
     cd0:	000000b8 	.word	0x000000b8
			cd0: R_ARM_GOT_PREL	gSessionInfo

00000cd4 <_Reset_Check_Nat_Status>:
     cd4:	e92d4038 	push	{r3, r4, r5, lr}
     cd8:	e59f5054 	ldr	r5, [pc, #84]	; d34 <_Reset_Check_Nat_Status+0x60>
     cdc:	e3a04000 	mov	r4, #0
     ce0:	e08f5005 	add	r5, pc, r5
     ce4:	e2450e75 	sub	r0, r5, #1872	; 0x750
     ce8:	e2453e76 	sub	r3, r5, #1888	; 0x760
     cec:	e240000c 	sub	r0, r0, #12
     cf0:	e1a01004 	mov	r1, r4
     cf4:	e3a02080 	mov	r2, #128	; 0x80
     cf8:	e1c340b0 	strh	r4, [r3]
     cfc:	e5054764 	str	r4, [r5, #-1892]	; 0xfffff89c
     d00:	ebfffffe 	bl	0 <memset>
			d00: R_ARM_CALL	memset
     d04:	e2453e6d 	sub	r3, r5, #1744	; 0x6d0
     d08:	e2833008 	add	r3, r3, #8
     d0c:	e50546dc 	str	r4, [r5, #-1756]	; 0xfffff924
     d10:	e50546d8 	str	r4, [r5, #-1752]	; 0xfffff928
     d14:	e50546d4 	str	r4, [r5, #-1748]	; 0xfffff92c
     d18:	e50546d0 	str	r4, [r5, #-1744]	; 0xfffff930
     d1c:	e50546cc 	str	r4, [r5, #-1740]	; 0xfffff934
     d20:	e50546bc 	str	r4, [r5, #-1724]	; 0xfffff944
     d24:	e4834004 	str	r4, [r3], #4
     d28:	e4834004 	str	r4, [r3], #4
     d2c:	e5834000 	str	r4, [r3]
     d30:	e8bd8038 	pop	{r3, r4, r5, pc}
     d34:	00002044 	.word	0x00002044
			d34: R_ARM_REL32	.bss

00000d38 <IsPrivateIPforV4>:
     d38:	e92d40f8 	push	{r3, r4, r5, r6, r7, lr}
     d3c:	e1a07000 	mov	r7, r0
     d40:	e59f0070 	ldr	r0, [pc, #112]	; db8 <IsPrivateIPforV4+0x80>
     d44:	e59f5070 	ldr	r5, [pc, #112]	; dbc <IsPrivateIPforV4+0x84>
     d48:	e08f0000 	add	r0, pc, r0
     d4c:	ebfffffe 	bl	0 <inet_addr>
			d4c: R_ARM_CALL	inet_addr
     d50:	e1a06000 	mov	r6, r0
     d54:	e59f0064 	ldr	r0, [pc, #100]	; dc0 <IsPrivateIPforV4+0x88>
     d58:	e08f0000 	add	r0, pc, r0
     d5c:	ebfffffe 	bl	0 <inet_addr>
			d5c: R_ARM_CALL	inet_addr
     d60:	e0055000 	and	r5, r5, r0
     d64:	e59f0058 	ldr	r0, [pc, #88]	; dc4 <IsPrivateIPforV4+0x8c>
     d68:	e08f0000 	add	r0, pc, r0
     d6c:	ebfffffe 	bl	0 <inet_addr>
			d6c: R_ARM_CALL	inet_addr
     d70:	e1a04000 	mov	r4, r0
     d74:	e1a00007 	mov	r0, r7
     d78:	ebfffffe 	bl	0 <inet_addr>
			d78: R_ARM_CALL	inet_addr
     d7c:	e1a03800 	lsl	r3, r0, #16
     d80:	e1530806 	cmp	r3, r6, lsl #16
     d84:	0a000009 	beq	db0 <IsPrivateIPforV4+0x78>
     d88:	e59f302c 	ldr	r3, [pc, #44]	; dbc <IsPrivateIPforV4+0x84>
     d8c:	e0033000 	and	r3, r3, r0
     d90:	e1530005 	cmp	r3, r5
     d94:	0a000005 	beq	db0 <IsPrivateIPforV4+0x78>
     d98:	e20440ff 	and	r4, r4, #255	; 0xff
     d9c:	e20000ff 	and	r0, r0, #255	; 0xff
     da0:	e0600004 	rsb	r0, r0, r4
     da4:	e16f0f10 	clz	r0, r0
     da8:	e1a002a0 	lsr	r0, r0, #5
     dac:	e8bd80f8 	pop	{r3, r4, r5, r6, r7, pc}
     db0:	e3a00001 	mov	r0, #1
     db4:	e8bd80f8 	pop	{r3, r4, r5, r6, r7, pc}
     db8:	00000068 	.word	0x00000068
			db8: R_ARM_REL32	.LC0
     dbc:	0000f0ff 	.word	0x0000f0ff
     dc0:	00000060 	.word	0x00000060
			dc0: R_ARM_REL32	.LC1
     dc4:	00000054 	.word	0x00000054
			dc4: R_ARM_REL32	.LC2

00000dc8 <CleanDeviceVPG>:
     dc8:	e92d41f0 	push	{r4, r5, r6, r7, r8, lr}
     dcc:	e59f40cc 	ldr	r4, [pc, #204]	; ea0 <CleanDeviceVPG+0xd8>
     dd0:	e08f4004 	add	r4, pc, r4
     dd4:	e2440e6b 	sub	r0, r4, #1712	; 0x6b0
     dd8:	e2400008 	sub	r0, r0, #8
     ddc:	ebfffde1 	bl	568 <__Search_DeviceInfo>
     de0:	e3700001 	cmn	r0, #1
     de4:	08bd81f0 	popeq	{r4, r5, r6, r7, r8, pc}
     de8:	e59f20b4 	ldr	r2, [pc, #180]	; ea4 <CleanDeviceVPG+0xdc>
     dec:	e3a03054 	mov	r3, #84	; 0x54
     df0:	e08f2002 	add	r2, pc, r2
     df4:	e0202093 	mla	r0, r3, r0, r2
     df8:	e2803048 	add	r3, r0, #72	; 0x48
     dfc:	e1d025b0 	ldrh	r2, [r0, #80]	; 0x50
     e00:	e1d310b6 	ldrh	r1, [r3, #6]
     e04:	e1d004bc 	ldrh	r0, [r0, #76]	; 0x4c
     e08:	ebfffdf8 	bl	5f0 <__Search_VPGServerList>
     e0c:	e3500000 	cmp	r0, #0
     e10:	b8bd81f0 	poplt	{r4, r5, r6, r7, r8, pc}
     e14:	e0606180 	rsb	r6, r0, r0, lsl #3
     e18:	e1a06106 	lsl	r6, r6, #2
     e1c:	e0845006 	add	r5, r4, r6
     e20:	e5153adc 	ldr	r3, [r5, #-2780]	; 0xfffff524
     e24:	e2457ead 	sub	r7, r5, #2768	; 0xad0
     e28:	e3530000 	cmp	r3, #0
     e2c:	e247700c 	sub	r7, r7, #12
     e30:	08bd81f0 	popeq	{r4, r5, r6, r7, r8, pc}
     e34:	e2440eaf 	sub	r0, r4, #2800	; 0xaf0
     e38:	ebfffffe 	bl	0 <pthread_mutex_lock>
			e38: R_ARM_CALL	pthread_mutex_lock
     e3c:	e5150adc 	ldr	r0, [r5, #-2780]	; 0xfffff524
     e40:	e3500000 	cmp	r0, #0
     e44:	0a000010 	beq	e8c <CleanDeviceVPG+0xc4>
     e48:	e2458eae 	sub	r8, r5, #2784	; 0xae0
     e4c:	ebfffffe 	bl	0 <free>
			e4c: R_ARM_CALL	free
     e50:	e4180004 	ldr	r0, [r8], #-4
     e54:	ebfffffe 	bl	0 <free>
			e54: R_ARM_CALL	free
     e58:	e5970004 	ldr	r0, [r7, #4]
     e5c:	ebfffffe 	bl	0 <free>
			e5c: R_ARM_CALL	free
     e60:	e5150ad4 	ldr	r0, [r5, #-2772]	; 0xfffff52c
     e64:	ebfffffe 	bl	0 <free>
			e64: R_ARM_CALL	free
     e68:	e2440eae 	sub	r0, r4, #2784	; 0xae0
     e6c:	e240000c 	sub	r0, r0, #12
     e70:	e3a03000 	mov	r3, #0
     e74:	e0800006 	add	r0, r0, r6
     e78:	e5883004 	str	r3, [r8, #4]
     e7c:	e1c030b6 	strh	r3, [r0, #6]
     e80:	e5053adc 	str	r3, [r5, #-2780]	; 0xfffff524
     e84:	e5873004 	str	r3, [r7, #4]
     e88:	e5053ad4 	str	r3, [r5, #-2772]	; 0xfffff52c
     e8c:	e59f0014 	ldr	r0, [pc, #20]	; ea8 <CleanDeviceVPG+0xe0>
     e90:	e8bd41f0 	pop	{r4, r5, r6, r7, r8, lr}
     e94:	e08f0000 	add	r0, pc, r0
     e98:	e2400eaf 	sub	r0, r0, #2800	; 0xaf0
     e9c:	eafffffe 	b	0 <pthread_mutex_unlock>
			e9c: R_ARM_JUMP24	pthread_mutex_unlock
     ea0:	000020c0 	.word	0x000020c0
			ea0: R_ARM_REL32	.bss
     ea4:	000000ac 	.word	0x000000ac
			ea4: R_ARM_REL32	.bss
     ea8:	00002004 	.word	0x00002004
			ea8: R_ARM_REL32	.bss

00000eac <IOTC_SearchDevice_Release>:
     eac:	e92d4038 	push	{r3, r4, r5, lr}
     eb0:	e59f408c 	ldr	r4, [pc, #140]	; f44 <IOTC_SearchDevice_Release+0x98>
     eb4:	e08f4004 	add	r4, pc, r4
     eb8:	e2440e69 	sub	r0, r4, #1680	; 0x690
     ebc:	e240000c 	sub	r0, r0, #12
     ec0:	ebfffffe 	bl	0 <pthread_mutex_lock>
			ec0: R_ARM_CALL	pthread_mutex_lock
     ec4:	e5140698 	ldr	r0, [r4, #-1688]	; 0xfffff968
     ec8:	e3500000 	cmp	r0, #0
     ecc:	0a000002 	beq	edc <IOTC_SearchDevice_Release+0x30>
     ed0:	ebfffffe 	bl	0 <free>
			ed0: R_ARM_CALL	free
     ed4:	e3a03000 	mov	r3, #0
     ed8:	e5043698 	str	r3, [r4, #-1688]	; 0xfffff968
     edc:	e59f5064 	ldr	r5, [pc, #100]	; f48 <IOTC_SearchDevice_Release+0x9c>
     ee0:	e59f1064 	ldr	r1, [pc, #100]	; f4c <IOTC_SearchDevice_Release+0xa0>
     ee4:	e79f5005 	ldr	r5, [pc, r5]
     ee8:	e59f2060 	ldr	r2, [pc, #96]	; f50 <IOTC_SearchDevice_Release+0xa4>
     eec:	e5950000 	ldr	r0, [r5]
     ef0:	e59f305c 	ldr	r3, [pc, #92]	; f54 <IOTC_SearchDevice_Release+0xa8>
     ef4:	e79f1001 	ldr	r1, [pc, r1]
     ef8:	e79f2002 	ldr	r2, [pc, r2]
     efc:	e3a04000 	mov	r4, #0
     f00:	e08f3003 	add	r3, pc, r3
     f04:	e3500000 	cmp	r0, #0
     f08:	e5814000 	str	r4, [r1]
     f0c:	e5824000 	str	r4, [r2]
     f10:	e5034694 	str	r4, [r3, #-1684]	; 0xfffff96c
     f14:	e5034690 	str	r4, [r3, #-1680]	; 0xfffff970
     f18:	0a000001 	beq	f24 <IOTC_SearchDevice_Release+0x78>
     f1c:	ebfffffe 	bl	0 <tutk_TaskMng_Delete>
			f1c: R_ARM_CALL	tutk_TaskMng_Delete
     f20:	e5854000 	str	r4, [r5]
     f24:	e59f302c 	ldr	r3, [pc, #44]	; f58 <IOTC_SearchDevice_Release+0xac>
     f28:	e3a02000 	mov	r2, #0
     f2c:	e08f3003 	add	r3, pc, r3
     f30:	e2430e69 	sub	r0, r3, #1680	; 0x690
     f34:	e543268c 	strb	r2, [r3, #-1676]	; 0xfffff974
     f38:	e240000c 	sub	r0, r0, #12
     f3c:	e8bd4038 	pop	{r3, r4, r5, lr}
     f40:	eafffffe 	b	0 <pthread_mutex_unlock>
			f40: R_ARM_JUMP24	pthread_mutex_unlock
     f44:	00002080 	.word	0x00002080
			f44: R_ARM_REL32	.bss
     f48:	0000005c 	.word	0x0000005c
			f48: R_ARM_GOT_PREL	gtSearchDeviceTask
     f4c:	00000050 	.word	0x00000050
			f4c: R_ARM_GOT_PREL	gnSearchDeviceChannelCount
     f50:	00000050 	.word	0x00000050
			f50: R_ARM_GOT_PREL	gSearchDeviceCB
     f54:	00002044 	.word	0x00002044
			f54: R_ARM_REL32	.bss
     f58:	0000201c 	.word	0x0000201c
			f58: R_ARM_REL32	.bss

00000f5c <__Update_DeviceInfo>:
     f5c:	e92d4070 	push	{r4, r5, r6, lr}
     f60:	e59f50a0 	ldr	r5, [pc, #160]	; 1008 <__Update_DeviceInfo+0xac>
     f64:	e1a06000 	mov	r6, r0
     f68:	e08f5005 	add	r5, pc, r5
     f6c:	e2850004 	add	r0, r5, #4
     f70:	ebfffffe 	bl	0 <pthread_mutex_lock>
			f70: R_ARM_CALL	pthread_mutex_lock
     f74:	e2850008 	add	r0, r5, #8
     f78:	e2801c15 	add	r1, r0, #5376	; 0x1500
     f7c:	e2465001 	sub	r5, r6, #1
     f80:	e1a0c005 	mov	ip, r5
     f84:	e2403001 	sub	r3, r0, #1
     f88:	e2804013 	add	r4, r0, #19
     f8c:	e5fce001 	ldrb	lr, [ip, #1]!
     f90:	e5f32001 	ldrb	r2, [r3, #1]!
     f94:	e152000e 	cmp	r2, lr
     f98:	1a00000b 	bne	fcc <__Update_DeviceInfo+0x70>
     f9c:	e3520000 	cmp	r2, #0
     fa0:	0a000001 	beq	fac <__Update_DeviceInfo+0x50>
     fa4:	e1540003 	cmp	r4, r3
     fa8:	1afffff7 	bne	f8c <__Update_DeviceInfo+0x30>
     fac:	e1a01006 	mov	r1, r6
     fb0:	e3a02054 	mov	r2, #84	; 0x54
     fb4:	ebfffffe 	bl	0 <memcpy>
			fb4: R_ARM_CALL	memcpy
     fb8:	e59f004c 	ldr	r0, [pc, #76]	; 100c <__Update_DeviceInfo+0xb0>
     fbc:	e8bd4070 	pop	{r4, r5, r6, lr}
     fc0:	e08f0000 	add	r0, pc, r0
     fc4:	e2800004 	add	r0, r0, #4
     fc8:	eafffffe 	b	0 <pthread_mutex_unlock>
			fc8: R_ARM_JUMP24	pthread_mutex_unlock
     fcc:	e2800054 	add	r0, r0, #84	; 0x54
     fd0:	e1500001 	cmp	r0, r1
     fd4:	1affffe9 	bne	f80 <__Update_DeviceInfo+0x24>
     fd8:	e59f0030 	ldr	r0, [pc, #48]	; 1010 <__Update_DeviceInfo+0xb4>
     fdc:	e59f2030 	ldr	r2, [pc, #48]	; 1014 <__Update_DeviceInfo+0xb8>
     fe0:	e08f0000 	add	r0, pc, r0
     fe4:	e5101688 	ldr	r1, [r0, #-1672]	; 0xfffff978
     fe8:	e08f2002 	add	r2, pc, r2
     fec:	e281c001 	add	ip, r1, #1
     ff0:	e2822008 	add	r2, r2, #8
     ff4:	e201103f 	and	r1, r1, #63	; 0x3f
     ff8:	e3a03054 	mov	r3, #84	; 0x54
     ffc:	e500c688 	str	ip, [r0, #-1672]	; 0xfffff978
    1000:	e0202193 	mla	r0, r3, r1, r2
    1004:	eaffffe8 	b	fac <__Update_DeviceInfo+0x50>
    1008:	00000098 	.word	0x00000098
			1008: R_ARM_REL32	.bss
    100c:	00000044 	.word	0x00000044
			100c: R_ARM_REL32	.bss
    1010:	00002020 	.word	0x00002020
			1010: R_ARM_REL32	.bss
    1014:	00000024 	.word	0x00000024
			1014: R_ARM_REL32	.bss

00001018 <_IOTC_Update_RemoteWANIP>:
    1018:	e59f3024 	ldr	r3, [pc, #36]	; 1044 <_IOTC_Update_RemoteWANIP+0x2c>
    101c:	e0800400 	add	r0, r0, r0, lsl #8
    1020:	e79f3003 	ldr	r3, [pc, r3]
    1024:	e5933000 	ldr	r3, [r3]
    1028:	e0830200 	add	r0, r3, r0, lsl #4
    102c:	e1d03eba 	ldrh	r3, [r0, #234]	; 0xea
    1030:	e3530000 	cmp	r3, #0
    1034:	112fff1e 	bxne	lr
    1038:	e28000e8 	add	r0, r0, #232	; 0xe8
    103c:	e3a02010 	mov	r2, #16
    1040:	eafffffe 	b	0 <memcpy>
			1040: R_ARM_JUMP24	memcpy
    1044:	0000001c 	.word	0x0000001c
			1044: R_ARM_GOT_PREL	gSessionInfo

00001048 <IOTC_TcpConnectToMasterTryPort>:
    1048:	e59f32a0 	ldr	r3, [pc, #672]	; 12f0 <IOTC_TcpConnectToMasterTryPort+0x2a8>
    104c:	e92d4ff0 	push	{r4, r5, r6, r7, r8, r9, sl, fp, lr}
    1050:	e08f3003 	add	r3, pc, r3
    1054:	e5937000 	ldr	r7, [r3]
    1058:	e24dd064 	sub	sp, sp, #100	; 0x64
    105c:	e3a0a000 	mov	sl, #0
    1060:	e3a03010 	mov	r3, #16
    1064:	e58d302c 	str	r3, [sp, #44]	; 0x2c
    1068:	e157000a 	cmp	r7, sl
    106c:	e28d3030 	add	r3, sp, #48	; 0x30
    1070:	e1cda2ba 	strh	sl, [sp, #42]	; 0x2a
    1074:	e58da030 	str	sl, [sp, #48]	; 0x30
    1078:	e58da034 	str	sl, [sp, #52]	; 0x34
    107c:	e58da038 	str	sl, [sp, #56]	; 0x38
    1080:	e58da03c 	str	sl, [sp, #60]	; 0x3c
    1084:	e58da040 	str	sl, [sp, #64]	; 0x40
    1088:	e58da044 	str	sl, [sp, #68]	; 0x44
    108c:	e58da048 	str	sl, [sp, #72]	; 0x48
    1090:	e58da04c 	str	sl, [sp, #76]	; 0x4c
    1094:	e58da050 	str	sl, [sp, #80]	; 0x50
    1098:	e58da054 	str	sl, [sp, #84]	; 0x54
    109c:	e58da058 	str	sl, [sp, #88]	; 0x58
    10a0:	e58da05c 	str	sl, [sp, #92]	; 0x5c
    10a4:	e1a02003 	mov	r2, r3
    10a8:	e58d3024 	str	r3, [sp, #36]	; 0x24
    10ac:	0a000080 	beq	12b4 <IOTC_TcpConnectToMasterTryPort+0x26c>
    10b0:	e59f723c 	ldr	r7, [pc, #572]	; 12f4 <IOTC_TcpConnectToMasterTryPort+0x2ac>
    10b4:	e59f323c 	ldr	r3, [pc, #572]	; 12f8 <IOTC_TcpConnectToMasterTryPort+0x2b0>
    10b8:	e08f7007 	add	r7, pc, r7
    10bc:	e08f3003 	add	r3, pc, r3
    10c0:	e2475e76 	sub	r5, r7, #1888	; 0x760
    10c4:	e2433e76 	sub	r3, r3, #1888	; 0x760
    10c8:	e59fb22c 	ldr	fp, [pc, #556]	; 12fc <IOTC_TcpConnectToMasterTryPort+0x2b4>
    10cc:	e59f622c 	ldr	r6, [pc, #556]	; 1300 <IOTC_TcpConnectToMasterTryPort+0x2b8>
    10d0:	e245100c 	sub	r1, r5, #12
    10d4:	e58d3020 	str	r3, [sp, #32]
    10d8:	e2804e57 	add	r4, r0, #1392	; 0x570
    10dc:	e243300c 	sub	r3, r3, #12
    10e0:	e2809e5a 	add	r9, r0, #1440	; 0x5a0
    10e4:	e58d3014 	str	r3, [sp, #20]
    10e8:	e1a08000 	mov	r8, r0
    10ec:	e79fb00b 	ldr	fp, [pc, fp]
    10f0:	e08f6006 	add	r6, pc, r6
    10f4:	e58d1018 	str	r1, [sp, #24]
    10f8:	e2844004 	add	r4, r4, #4
    10fc:	e2899004 	add	r9, r9, #4
    1100:	e1a05002 	mov	r5, r2
    1104:	e5c0a570 	strb	sl, [r0, #1392]	; 0x570
    1108:	e5c0a61c 	strb	sl, [r0, #1564]	; 0x61c
    110c:	e1a0300a 	mov	r3, sl
    1110:	ea000005 	b	112c <IOTC_TcpConnectToMasterTryPort+0xe4>
    1114:	e2844004 	add	r4, r4, #4
    1118:	e1540009 	cmp	r4, r9
    111c:	e28bb040 	add	fp, fp, #64	; 0x40
    1120:	e2855004 	add	r5, r5, #4
    1124:	e2866002 	add	r6, r6, #2
    1128:	0a000060 	beq	12b0 <IOTC_TcpConnectToMasterTryPort+0x268>
    112c:	e5db2004 	ldrb	r2, [fp, #4]
    1130:	e28ba004 	add	sl, fp, #4
    1134:	e3520000 	cmp	r2, #0
    1138:	0afffff5 	beq	1114 <IOTC_TcpConnectToMasterTryPort+0xcc>
    113c:	e1d620b0 	ldrh	r2, [r6]
    1140:	e59d3020 	ldr	r3, [sp, #32]
    1144:	e59d0018 	ldr	r0, [sp, #24]
    1148:	e2437008 	sub	r7, r3, #8
    114c:	e1a03422 	lsr	r3, r2, #8
    1150:	e1833402 	orr	r3, r3, r2, lsl #8
    1154:	e1a03803 	lsl	r3, r3, #16
    1158:	e1a03823 	lsr	r3, r3, #16
    115c:	e1cb30b2 	strh	r3, [fp, #2]
    1160:	e1cd32ba 	strh	r3, [sp, #42]	; 0x2a
    1164:	ebfffffe 	bl	0 <pthread_mutex_lock>
			1164: R_ARM_CALL	pthread_mutex_lock
    1168:	e5943000 	ldr	r3, [r4]
    116c:	e59f2190 	ldr	r2, [pc, #400]	; 1304 <IOTC_TcpConnectToMasterTryPort+0x2bc>
    1170:	e2531000 	subs	r1, r3, #0
    1174:	e08f2002 	add	r2, pc, r2
    1178:	0a00000b 	beq	11ac <IOTC_TcpConnectToMasterTryPort+0x164>
    117c:	e5920000 	ldr	r0, [r2]
    1180:	e5903000 	ldr	r3, [r0]
    1184:	e593300c 	ldr	r3, [r3, #12]
    1188:	e12fff33 	blx	r3
    118c:	e3a02000 	mov	r2, #0
    1190:	e5842000 	str	r2, [r4]
    1194:	e58d001c 	str	r0, [sp, #28]
    1198:	e59d0018 	ldr	r0, [sp, #24]
    119c:	ebfffffe 	bl	0 <pthread_mutex_unlock>
			119c: R_ARM_CALL	pthread_mutex_unlock
    11a0:	e59d301c 	ldr	r3, [sp, #28]
    11a4:	e3530000 	cmp	r3, #0
    11a8:	ba000040 	blt	12b0 <IOTC_TcpConnectToMasterTryPort+0x268>
    11ac:	e59d0014 	ldr	r0, [sp, #20]
    11b0:	ebfffffe 	bl	0 <pthread_mutex_unlock>
			11b0: R_ARM_CALL	pthread_mutex_unlock
    11b4:	e59f314c 	ldr	r3, [pc, #332]	; 1308 <IOTC_TcpConnectToMasterTryPort+0x2c0>
    11b8:	e3a01000 	mov	r1, #0
    11bc:	e08f3003 	add	r3, pc, r3
    11c0:	e5930000 	ldr	r0, [r3]
    11c4:	e1a02001 	mov	r2, r1
    11c8:	e590c000 	ldr	ip, [r0]
    11cc:	e1a03001 	mov	r3, r1
    11d0:	e58d5000 	str	r5, [sp]
    11d4:	e59cc008 	ldr	ip, [ip, #8]
    11d8:	e12fff3c 	blx	ip
    11dc:	e2503000 	subs	r3, r0, #0
    11e0:	ba000032 	blt	12b0 <IOTC_TcpConnectToMasterTryPort+0x268>
    11e4:	e5950000 	ldr	r0, [r5]
    11e8:	e5903000 	ldr	r3, [r0]
    11ec:	e5933000 	ldr	r3, [r3]
    11f0:	e12fff33 	blx	r3
    11f4:	e59d0014 	ldr	r0, [sp, #20]
    11f8:	ebfffffe 	bl	0 <pthread_mutex_lock>
			11f8: R_ARM_CALL	pthread_mutex_lock
    11fc:	e5953000 	ldr	r3, [r5]
    1200:	e5843000 	str	r3, [r4]
    1204:	e59d0014 	ldr	r0, [sp, #20]
    1208:	ebfffffe 	bl	0 <pthread_mutex_unlock>
			1208: R_ARM_CALL	pthread_mutex_unlock
    120c:	e5950000 	ldr	r0, [r5]
    1210:	e59f10f4 	ldr	r1, [pc, #244]	; 130c <IOTC_TcpConnectToMasterTryPort+0x2c4>
    1214:	e5903000 	ldr	r3, [r0]
    1218:	e08f1001 	add	r1, pc, r1
    121c:	e5933014 	ldr	r3, [r3, #20]
    1220:	e3a02000 	mov	r2, #0
    1224:	e12fff33 	blx	r3
    1228:	e2503000 	subs	r3, r0, #0
    122c:	e1a00007 	mov	r0, r7
    1230:	ba00001e 	blt	12b0 <IOTC_TcpConnectToMasterTryPort+0x268>
    1234:	ebfffffe 	bl	0 <pthread_mutex_lock>
			1234: R_ARM_CALL	pthread_mutex_lock
    1238:	e5d83571 	ldrb	r3, [r8, #1393]	; 0x571
    123c:	e1a00007 	mov	r0, r7
    1240:	e2833001 	add	r3, r3, #1
    1244:	e5c83571 	strb	r3, [r8, #1393]	; 0x571
    1248:	ebfffffe 	bl	0 <pthread_mutex_unlock>
			1248: R_ARM_CALL	pthread_mutex_unlock
    124c:	e5950000 	ldr	r0, [r5]
    1250:	e59f20b8 	ldr	r2, [pc, #184]	; 1310 <IOTC_TcpConnectToMasterTryPort+0x2c8>
    1254:	e59f30b8 	ldr	r3, [pc, #184]	; 1314 <IOTC_TcpConnectToMasterTryPort+0x2cc>
    1258:	e590c000 	ldr	ip, [r0]
    125c:	e08f2002 	add	r2, pc, r2
    1260:	e08f3003 	add	r3, pc, r3
    1264:	e58d2000 	str	r2, [sp]
    1268:	e58d3008 	str	r3, [sp, #8]
    126c:	e1a0100a 	mov	r1, sl
    1270:	e58d8004 	str	r8, [sp, #4]
    1274:	e58d800c 	str	r8, [sp, #12]
    1278:	e28d202a 	add	r2, sp, #42	; 0x2a
    127c:	e3a03000 	mov	r3, #0
    1280:	e59cc008 	ldr	ip, [ip, #8]
    1284:	e12fff3c 	blx	ip
    1288:	e3a01000 	mov	r1, #0
    128c:	e28d202c 	add	r2, sp, #44	; 0x2c
    1290:	e2503000 	subs	r3, r0, #0
    1294:	ba000005 	blt	12b0 <IOTC_TcpConnectToMasterTryPort+0x268>
    1298:	e5950000 	ldr	r0, [r5]
    129c:	e5903000 	ldr	r3, [r0]
    12a0:	e5933028 	ldr	r3, [r3, #40]	; 0x28
    12a4:	e12fff33 	blx	r3
    12a8:	e2503000 	subs	r3, r0, #0
    12ac:	aaffff98 	bge	1114 <IOTC_TcpConnectToMasterTryPort+0xcc>
    12b0:	e1a07003 	mov	r7, r3
    12b4:	e59d4024 	ldr	r4, [sp, #36]	; 0x24
    12b8:	e28d6060 	add	r6, sp, #96	; 0x60
    12bc:	e3a05000 	mov	r5, #0
    12c0:	e5943000 	ldr	r3, [r4]
    12c4:	e2530000 	subs	r0, r3, #0
    12c8:	0a000002 	beq	12d8 <IOTC_TcpConnectToMasterTryPort+0x290>
    12cc:	e5933000 	ldr	r3, [r3]
    12d0:	e5933004 	ldr	r3, [r3, #4]
    12d4:	e12fff33 	blx	r3
    12d8:	e4845004 	str	r5, [r4], #4
    12dc:	e1540006 	cmp	r4, r6
    12e0:	1afffff6 	bne	12c0 <IOTC_TcpConnectToMasterTryPort+0x278>
    12e4:	e1a00007 	mov	r0, r7
    12e8:	e28dd064 	add	sp, sp, #100	; 0x64
    12ec:	e8bd8ff0 	pop	{r4, r5, r6, r7, r8, r9, sl, fp, pc}
    12f0:	00000298 	.word	0x00000298
			12f0: R_ARM_REL32	.bss
    12f4:	0000222c 	.word	0x0000222c
			12f4: R_ARM_REL32	.bss
    12f8:	0000222c 	.word	0x0000222c
			12f8: R_ARM_REL32	.bss
    12fc:	00000208 	.word	0x00000208
			12fc: R_ARM_GOT_PREL	gP2PMasterAddrv6
    1300:	00000208 	.word	0x00000208
			1300: R_ARM_REL32	.rodata
    1304:	00000188 	.word	0x00000188
			1304: R_ARM_REL32	.bss
    1308:	00000144 	.word	0x00000144
			1308: R_ARM_REL32	.bss
    130c:	0001ce74 	.word	0x0001ce74
    1310:	00000a64 	.word	0x00000a64
    1314:	fffff5e4 	.word	0xfffff5e4

00001318 <IOTC_OpenUDP_LANSocket>:
    1318:	e59f2118 	ldr	r2, [pc, #280]	; 1438 <IOTC_OpenUDP_LANSocket+0x120>
    131c:	e59f3118 	ldr	r3, [pc, #280]	; 143c <IOTC_OpenUDP_LANSocket+0x124>
    1320:	e08f2002 	add	r2, pc, r2
    1324:	e1d220b4 	ldrh	r2, [r2, #4]
    1328:	e08f3003 	add	r3, pc, r3
    132c:	e5930000 	ldr	r0, [r3]
    1330:	e1a03422 	lsr	r3, r2, #8
    1334:	e92d4030 	push	{r4, r5, lr}
    1338:	e1833402 	orr	r3, r3, r2, lsl #8
    133c:	e24dd01c 	sub	sp, sp, #28
    1340:	e59f20f8 	ldr	r2, [pc, #248]	; 1440 <IOTC_OpenUDP_LANSocket+0x128>
    1344:	e3500000 	cmp	r0, #0
    1348:	e1cd31b2 	strh	r3, [sp, #18]
    134c:	e58d2014 	str	r2, [sp, #20]
    1350:	0a000036 	beq	1430 <IOTC_OpenUDP_LANSocket+0x118>
    1354:	e59f50e8 	ldr	r5, [pc, #232]	; 1444 <IOTC_OpenUDP_LANSocket+0x12c>
    1358:	e08f5005 	add	r5, pc, r5
    135c:	e5154684 	ldr	r4, [r5, #-1668]	; 0xfffff97c
    1360:	e3540000 	cmp	r4, #0
    1364:	0a000002 	beq	1374 <IOTC_OpenUDP_LANSocket+0x5c>
    1368:	e3a00000 	mov	r0, #0
    136c:	e28dd01c 	add	sp, sp, #28
    1370:	e8bd8030 	pop	{r4, r5, pc}
    1374:	e5902000 	ldr	r2, [r0]
    1378:	e2453d1a 	sub	r3, r5, #1664	; 0x680
    137c:	e2433004 	sub	r3, r3, #4
    1380:	e3a01001 	mov	r1, #1
    1384:	e58d3000 	str	r3, [sp]
    1388:	e1a03004 	mov	r3, r4
    138c:	e592c008 	ldr	ip, [r2, #8]
    1390:	e1a02001 	mov	r2, r1
    1394:	e12fff3c 	blx	ip
    1398:	e3500000 	cmp	r0, #0
    139c:	ba00001d 	blt	1418 <IOTC_OpenUDP_LANSocket+0x100>
    13a0:	e5150684 	ldr	r0, [r5, #-1668]	; 0xfffff97c
    13a4:	e59f109c 	ldr	r1, [pc, #156]	; 1448 <IOTC_OpenUDP_LANSocket+0x130>
    13a8:	e5903000 	ldr	r3, [r0]
    13ac:	e08f1001 	add	r1, pc, r1
    13b0:	e5933014 	ldr	r3, [r3, #20]
    13b4:	e1a02004 	mov	r2, r4
    13b8:	e12fff33 	blx	r3
    13bc:	e3500000 	cmp	r0, #0
    13c0:	ba000014 	blt	1418 <IOTC_OpenUDP_LANSocket+0x100>
    13c4:	e5150684 	ldr	r0, [r5, #-1668]	; 0xfffff97c
    13c8:	e1a01004 	mov	r1, r4
    13cc:	e5903000 	ldr	r3, [r0]
    13d0:	e28d2012 	add	r2, sp, #18
    13d4:	e58d4000 	str	r4, [sp]
    13d8:	e58d4004 	str	r4, [sp, #4]
    13dc:	e58d4008 	str	r4, [sp, #8]
    13e0:	e58d400c 	str	r4, [sp, #12]
    13e4:	e593c008 	ldr	ip, [r3, #8]
    13e8:	e1a03004 	mov	r3, r4
    13ec:	e12fff3c 	blx	ip
    13f0:	e3500000 	cmp	r0, #0
    13f4:	ba000007 	blt	1418 <IOTC_OpenUDP_LANSocket+0x100>
    13f8:	e5150684 	ldr	r0, [r5, #-1668]	; 0xfffff97c
    13fc:	e1a01004 	mov	r1, r4
    1400:	e5903000 	ldr	r3, [r0]
    1404:	e28d2014 	add	r2, sp, #20
    1408:	e5933028 	ldr	r3, [r3, #40]	; 0x28
    140c:	e12fff33 	blx	r3
    1410:	e3500000 	cmp	r0, #0
    1414:	aaffffd3 	bge	1368 <IOTC_OpenUDP_LANSocket+0x50>
    1418:	e59f302c 	ldr	r3, [pc, #44]	; 144c <IOTC_OpenUDP_LANSocket+0x134>
    141c:	e3a02000 	mov	r2, #0
    1420:	e08f3003 	add	r3, pc, r3
    1424:	e5432680 	strb	r2, [r3, #-1664]	; 0xfffff980
    1428:	e3e00005 	mvn	r0, #5
    142c:	eaffffce 	b	136c <IOTC_OpenUDP_LANSocket+0x54>
    1430:	e3e0003c 	mvn	r0, #60	; 0x3c
    1434:	eaffffcc 	b	136c <IOTC_OpenUDP_LANSocket+0x54>
    1438:	00000110 	.word	0x00000110
			1438: R_ARM_REL32	.data
    143c:	0000010c 	.word	0x0000010c
			143c: R_ARM_REL32	.bss
    1440:	00000588 	.word	0x00000588
    1444:	000020dc 	.word	0x000020dc
			1444: R_ARM_REL32	.bss
    1448:	0001cc0c 	.word	0x0001cc0c
    144c:	0000201c 	.word	0x0000201c
			144c: R_ARM_REL32	.bss

00001450 <IOTC_TCPConnectToServerSetupNBSuccCB>:
    1450:	e92d4070 	push	{r4, r5, r6, lr}
    1454:	e59f40b8 	ldr	r4, [pc, #184]	; 1514 <IOTC_TCPConnectToServerSetupNBSuccCB+0xc4>
    1458:	e3a03000 	mov	r3, #0
    145c:	e08f4004 	add	r4, pc, r4
    1460:	e514267c 	ldr	r2, [r4, #-1660]	; 0xfffff984
    1464:	e24dd030 	sub	sp, sp, #48	; 0x30
    1468:	e1520003 	cmp	r2, r3
    146c:	e58d3000 	str	r3, [sp]
    1470:	e58d3004 	str	r3, [sp, #4]
    1474:	e58d3008 	str	r3, [sp, #8]
    1478:	e58d300c 	str	r3, [sp, #12]
    147c:	e58d3010 	str	r3, [sp, #16]
    1480:	e58d3014 	str	r3, [sp, #20]
    1484:	e58d3018 	str	r3, [sp, #24]
    1488:	e58d301c 	str	r3, [sp, #28]
    148c:	e58d3020 	str	r3, [sp, #32]
    1490:	e58d3024 	str	r3, [sp, #36]	; 0x24
    1494:	e58d3028 	str	r3, [sp, #40]	; 0x28
    1498:	e1cd32bc 	strh	r3, [sp, #44]	; 0x2c
    149c:	0a000001 	beq	14a8 <IOTC_TCPConnectToServerSetupNBSuccCB+0x58>
    14a0:	e28dd030 	add	sp, sp, #48	; 0x30
    14a4:	e8bd8070 	pop	{r4, r5, r6, pc}
    14a8:	e5903000 	ldr	r3, [r0]
    14ac:	e1a06001 	mov	r6, r1
    14b0:	e5933000 	ldr	r3, [r3]
    14b4:	e1a05000 	mov	r5, r0
    14b8:	e12fff33 	blx	r3
    14bc:	e2443e67 	sub	r3, r4, #1648	; 0x670
    14c0:	e2433008 	sub	r3, r3, #8
    14c4:	e1a00003 	mov	r0, r3
    14c8:	e5961000 	ldr	r1, [r6]
    14cc:	e3a02010 	mov	r2, #16
    14d0:	e504567c 	str	r5, [r4, #-1660]	; 0xfffff984
    14d4:	ebfffffe 	bl	0 <memcpy>
			14d4: R_ARM_CALL	memcpy
    14d8:	e1a0200d 	mov	r2, sp
    14dc:	e3a0102e 	mov	r1, #46	; 0x2e
    14e0:	ebfffffe 	bl	0 <iotc_sockaddr_to_ip_string>
			14e0: R_ARM_CALL	iotc_sockaddr_to_ip_string
    14e4:	e5962004 	ldr	r2, [r6, #4]
    14e8:	e3a03001 	mov	r3, #1
    14ec:	e5c23572 	strb	r3, [r2, #1394]	; 0x572
    14f0:	e5962004 	ldr	r2, [r6, #4]
    14f4:	e3a00004 	mov	r0, #4
    14f8:	e3a0100a 	mov	r1, #10
    14fc:	e58206c4 	str	r0, [r2, #1732]	; 0x6c4
    1500:	e58216c0 	str	r1, [r2, #1728]	; 0x6c0
    1504:	e5043668 	str	r3, [r4, #-1640]	; 0xfffff998
    1508:	e586300c 	str	r3, [r6, #12]
    150c:	e28dd030 	add	sp, sp, #48	; 0x30
    1510:	e8bd8070 	pop	{r4, r5, r6, pc}
    1514:	000020a8 	.word	0x000020a8
			1514: R_ARM_REL32	.bss

00001518 <_SetSendPath>:
    1518:	e92d41f0 	push	{r4, r5, r6, r7, r8, lr}
    151c:	e24dd018 	sub	sp, sp, #24
    1520:	e28d6004 	add	r6, sp, #4
    1524:	e1a05000 	mov	r5, r0
    1528:	e1a07001 	mov	r7, r1
    152c:	e1a08002 	mov	r8, r2
    1530:	e1a00003 	mov	r0, r3
    1534:	e1a02006 	mov	r2, r6
    1538:	e1dd13b0 	ldrh	r1, [sp, #48]	; 0x30
    153c:	ebfffffe 	bl	0 <iotc_netaddr_put_content>
			153c: R_ARM_CALL	iotc_netaddr_put_content
    1540:	e3500000 	cmp	r0, #0
    1544:	1a000026 	bne	15e4 <_SetSendPath+0xcc>
    1548:	e59f3174 	ldr	r3, [pc, #372]	; 16c4 <_SetSendPath+0x1ac>
    154c:	e0874407 	add	r4, r7, r7, lsl #8
    1550:	e79f3003 	ldr	r3, [pc, r3]
    1554:	e5933000 	ldr	r3, [r3]
    1558:	e0834204 	add	r4, r3, r4, lsl #4
    155c:	e3550003 	cmp	r5, #3
    1560:	908ff105 	addls	pc, pc, r5, lsl #2
    1564:	ea000020 	b	15ec <_SetSendPath+0xd4>
    1568:	ea000034 	b	1640 <_SetSendPath+0x128>
    156c:	ea000001 	b	1578 <_SetSendPath+0x60>
    1570:	ea000047 	b	1694 <_SetSendPath+0x17c>
    1574:	ea00004c 	b	16ac <_SetSendPath+0x194>
    1578:	e5848628 	str	r8, [r4, #1576]	; 0x628
    157c:	e28400ac 	add	r0, r4, #172	; 0xac
    1580:	e1a01006 	mov	r1, r6
    1584:	e3a02014 	mov	r2, #20
    1588:	ebfffffe 	bl	0 <memcpy>
			1588: R_ARM_CALL	memcpy
    158c:	e594263c 	ldr	r2, [r4, #1596]	; 0x63c
    1590:	e3720001 	cmn	r2, #1
    1594:	13a03000 	movne	r3, #0
    1598:	03a03001 	moveq	r3, #1
    159c:	e1550002 	cmp	r5, r2
    15a0:	b3833001 	orrlt	r3, r3, #1
    15a4:	e3530000 	cmp	r3, #0
    15a8:	0a00000d 	beq	15e4 <_SetSendPath+0xcc>
    15ac:	e5848638 	str	r8, [r4, #1592]	; 0x638
    15b0:	e584563c 	str	r5, [r4, #1596]	; 0x63c
    15b4:	e2840098 	add	r0, r4, #152	; 0x98
    15b8:	e1a01006 	mov	r1, r6
    15bc:	e3a02014 	mov	r2, #20
    15c0:	ebfffffe 	bl	0 <memcpy>
			15c0: R_ARM_CALL	memcpy
    15c4:	e59f30fc 	ldr	r3, [pc, #252]	; 16c8 <_SetSendPath+0x1b0>
    15c8:	e08f3003 	add	r3, pc, r3
    15cc:	e5133664 	ldr	r3, [r3, #-1636]	; 0xfffff99c
    15d0:	e3530000 	cmp	r3, #0
    15d4:	0a000002 	beq	15e4 <_SetSendPath+0xcc>
    15d8:	e1a00007 	mov	r0, r7
    15dc:	e1a01005 	mov	r1, r5
    15e0:	e12fff33 	blx	r3
    15e4:	e28dd018 	add	sp, sp, #24
    15e8:	e8bd81f0 	pop	{r4, r5, r6, r7, r8, pc}
    15ec:	e594263c 	ldr	r2, [r4, #1596]	; 0x63c
    15f0:	e3720001 	cmn	r2, #1
    15f4:	13a03000 	movne	r3, #0
    15f8:	03a03001 	moveq	r3, #1
    15fc:	e1550002 	cmp	r5, r2
    1600:	b3833001 	orrlt	r3, r3, #1
    1604:	e3530000 	cmp	r3, #0
    1608:	0afffff5 	beq	15e4 <_SetSendPath+0xcc>
    160c:	e5848638 	str	r8, [r4, #1592]	; 0x638
    1610:	e584563c 	str	r5, [r4, #1596]	; 0x63c
    1614:	e1a01006 	mov	r1, r6
    1618:	e2840098 	add	r0, r4, #152	; 0x98
    161c:	e3a02014 	mov	r2, #20
    1620:	ebfffffe 	bl	0 <memcpy>
			1620: R_ARM_CALL	memcpy
    1624:	e3550000 	cmp	r5, #0
    1628:	1affffe5 	bne	15c4 <_SetSendPath+0xac>
    162c:	e59f3098 	ldr	r3, [pc, #152]	; 16cc <_SetSendPath+0x1b4>
    1630:	e08f3003 	add	r3, pc, r3
    1634:	e5133764 	ldr	r3, [r3, #-1892]	; 0xfffff89c
    1638:	e5c4301a 	strb	r3, [r4, #26]
    163c:	eaffffe0 	b	15c4 <_SetSendPath+0xac>
    1640:	e3a02014 	mov	r2, #20
    1644:	e584862c 	str	r8, [r4, #1580]	; 0x62c
    1648:	e2840034 	add	r0, r4, #52	; 0x34
    164c:	e1a01006 	mov	r1, r6
    1650:	ebfffffe 	bl	0 <memcpy>
			1650: R_ARM_CALL	memcpy
    1654:	e594263c 	ldr	r2, [r4, #1596]	; 0x63c
    1658:	e3720001 	cmn	r2, #1
    165c:	13a03000 	movne	r3, #0
    1660:	03a03001 	moveq	r3, #1
    1664:	e3520000 	cmp	r2, #0
    1668:	c3833001 	orrgt	r3, r3, #1
    166c:	e3530000 	cmp	r3, #0
    1670:	0affffdb 	beq	15e4 <_SetSendPath+0xcc>
    1674:	e3a03000 	mov	r3, #0
    1678:	e5848638 	str	r8, [r4, #1592]	; 0x638
    167c:	e1a01006 	mov	r1, r6
    1680:	e584363c 	str	r3, [r4, #1596]	; 0x63c
    1684:	e2840098 	add	r0, r4, #152	; 0x98
    1688:	e3a02014 	mov	r2, #20
    168c:	ebfffffe 	bl	0 <memcpy>
			168c: R_ARM_CALL	memcpy
    1690:	eaffffe5 	b	162c <_SetSendPath+0x114>
    1694:	e5848630 	str	r8, [r4, #1584]	; 0x630
    1698:	e28400c0 	add	r0, r4, #192	; 0xc0
    169c:	e1a01006 	mov	r1, r6
    16a0:	e3a02014 	mov	r2, #20
    16a4:	ebfffffe 	bl	0 <memcpy>
			16a4: R_ARM_CALL	memcpy
    16a8:	eaffffb7 	b	158c <_SetSendPath+0x74>
    16ac:	e5848634 	str	r8, [r4, #1588]	; 0x634
    16b0:	e28400d4 	add	r0, r4, #212	; 0xd4
    16b4:	e1a01006 	mov	r1, r6
    16b8:	e3a02014 	mov	r2, #20
    16bc:	ebfffffe 	bl	0 <memcpy>
			16bc: R_ARM_CALL	memcpy
    16c0:	eaffffb1 	b	158c <_SetSendPath+0x74>
    16c4:	0000016c 	.word	0x0000016c
			16c4: R_ARM_GOT_PREL	gSessionInfo
    16c8:	000020f0 	.word	0x000020f0
			16c8: R_ARM_REL32	.bss
    16cc:	0000208c 	.word	0x0000208c
			16cc: R_ARM_REL32	.bss

000016d0 <SendKeepNATCB>:
    16d0:	e92d47f0 	push	{r4, r5, r6, r7, r8, r9, sl, lr}
    16d4:	e59f7134 	ldr	r7, [pc, #308]	; 1810 <SendKeepNATCB+0x140>
    16d8:	e24dd050 	sub	sp, sp, #80	; 0x50
    16dc:	e08f7007 	add	r7, pc, r7
    16e0:	e2470e6b 	sub	r0, r7, #1712	; 0x6b0
    16e4:	e2400008 	sub	r0, r0, #8
    16e8:	ebfffb9e 	bl	568 <__Search_DeviceInfo>
    16ec:	e3500000 	cmp	r0, #0
    16f0:	ba000043 	blt	1804 <SendKeepNATCB+0x134>
    16f4:	e59f2118 	ldr	r2, [pc, #280]	; 1814 <SendKeepNATCB+0x144>
    16f8:	e3a03054 	mov	r3, #84	; 0x54
    16fc:	e08f2002 	add	r2, pc, r2
    1700:	e0202093 	mla	r0, r3, r0, r2
    1704:	e2803048 	add	r3, r0, #72	; 0x48
    1708:	e1d025b0 	ldrh	r2, [r0, #80]	; 0x50
    170c:	e1d310b6 	ldrh	r1, [r3, #6]
    1710:	e1d004bc 	ldrh	r0, [r0, #76]	; 0x4c
    1714:	ebfffbb5 	bl	5f0 <__Search_VPGServerList>
    1718:	e2504000 	subs	r4, r0, #0
    171c:	ba000038 	blt	1804 <SendKeepNATCB+0x134>
    1720:	e5573660 	ldrb	r3, [r7, #-1632]	; 0xfffff9a0
    1724:	e3530001 	cmp	r3, #1
    1728:	0a000035 	beq	1804 <SendKeepNATCB+0x134>
    172c:	e2470eaf 	sub	r0, r7, #2800	; 0xaf0
    1730:	e0644184 	rsb	r4, r4, r4, lsl #3
    1734:	e247aeae 	sub	sl, r7, #2784	; 0xae0
    1738:	ebfffffe 	bl	0 <pthread_mutex_lock>
			1738: R_ARM_CALL	pthread_mutex_lock
    173c:	e24aa00c 	sub	sl, sl, #12
    1740:	e1a00104 	lsl	r0, r4, #2
    1744:	e08aa000 	add	sl, sl, r0
    1748:	e1da30b6 	ldrh	r3, [sl, #6]
    174c:	e3530000 	cmp	r3, #0
    1750:	0a000027 	beq	17f4 <SendKeepNATCB+0x124>
    1754:	e0878000 	add	r8, r7, r0
    1758:	e3a04000 	mov	r4, #0
    175c:	e28d3020 	add	r3, sp, #32
    1760:	e2486ead 	sub	r6, r8, #2768	; 0xad0
    1764:	e59f90ac 	ldr	r9, [pc, #172]	; 1818 <SendKeepNATCB+0x148>
    1768:	e58d300c 	str	r3, [sp, #12]
    176c:	e1a05004 	mov	r5, r4
    1770:	e28d8016 	add	r8, sp, #22
    1774:	ea000002 	b	1784 <SendKeepNATCB+0xb4>
    1778:	e1da30b6 	ldrh	r3, [sl, #6]
    177c:	e1530005 	cmp	r3, r5
    1780:	da00001b 	ble	17f4 <SendKeepNATCB+0x124>
    1784:	e516000c 	ldr	r0, [r6, #-12]
    1788:	e2855001 	add	r5, r5, #1
    178c:	e0800004 	add	r0, r0, r4
    1790:	e1d030b2 	ldrh	r3, [r0, #2]
    1794:	e2844014 	add	r4, r4, #20
    1798:	e3530000 	cmp	r3, #0
    179c:	0afffff5 	beq	1778 <SendKeepNATCB+0xa8>
    17a0:	e3a03000 	mov	r3, #0
    17a4:	e58d3000 	str	r3, [sp]
    17a8:	e3a0102e 	mov	r1, #46	; 0x2e
    17ac:	e59d200c 	ldr	r2, [sp, #12]
    17b0:	e1a03008 	mov	r3, r8
    17b4:	ebfffffe 	bl	0 <iotc_netaddr_get_content>
			17b4: R_ARM_CALL	iotc_netaddr_get_content
    17b8:	e517065c 	ldr	r0, [r7, #-1628]	; 0xfffff9a4
    17bc:	e3a01004 	mov	r1, #4
    17c0:	e590c000 	ldr	ip, [r0]
    17c4:	e28d301c 	add	r3, sp, #28
    17c8:	e58d3000 	str	r3, [sp]
    17cc:	e58d101c 	str	r1, [sp, #28]
    17d0:	e28d3018 	add	r3, sp, #24
    17d4:	e1dd21b6 	ldrh	r2, [sp, #22]
    17d8:	e58d9018 	str	r9, [sp, #24]
    17dc:	e59cc010 	ldr	ip, [ip, #16]
    17e0:	e59d100c 	ldr	r1, [sp, #12]
    17e4:	e12fff3c 	blx	ip
    17e8:	e1da30b6 	ldrh	r3, [sl, #6]
    17ec:	e1530005 	cmp	r3, r5
    17f0:	caffffe3 	bgt	1784 <SendKeepNATCB+0xb4>
    17f4:	e59f0020 	ldr	r0, [pc, #32]	; 181c <SendKeepNATCB+0x14c>
    17f8:	e08f0000 	add	r0, pc, r0
    17fc:	e2400eaf 	sub	r0, r0, #2800	; 0xaf0
    1800:	ebfffffe 	bl	0 <pthread_mutex_unlock>
			1800: R_ARM_CALL	pthread_mutex_unlock
    1804:	e3a00000 	mov	r0, #0
    1808:	e28dd050 	add	sp, sp, #80	; 0x50
    180c:	e8bd87f0 	pop	{r4, r5, r6, r7, r8, r9, sl, pc}
    1810:	00002124 	.word	0x00002124
			1810: R_ARM_REL32	.bss
    1814:	00000110 	.word	0x00000110
			1814: R_ARM_REL32	.bss
    1818:	ababaacc 	.word	0xababaacc
    181c:	00002014 	.word	0x00002014
			181c: R_ARM_REL32	.bss

00001820 <_TcpConnectServer>:
    1820:	e92d4ff0 	push	{r4, r5, r6, r7, r8, r9, sl, fp, lr}
    1824:	e24dd0e4 	sub	sp, sp, #228	; 0xe4
    1828:	e3a08000 	mov	r8, #0
    182c:	e28d3060 	add	r3, sp, #96	; 0x60
    1830:	e1a04000 	mov	r4, r0
    1834:	e58d3024 	str	r3, [sp, #36]	; 0x24
    1838:	e58d0014 	str	r0, [sp, #20]
    183c:	e1a01008 	mov	r1, r8
    1840:	e1a00003 	mov	r0, r3
    1844:	e3a02080 	mov	r2, #128	; 0x80
    1848:	e59f3248 	ldr	r3, [pc, #584]	; 1a98 <_TcpConnectServer+0x278>
    184c:	e58d302c 	str	r3, [sp, #44]	; 0x2c
    1850:	e1cd82ba 	strh	r8, [sp, #42]	; 0x2a
    1854:	ebfffffe 	bl	0 <memset>
			1854: R_ARM_CALL	memset
    1858:	e1a00004 	mov	r0, r4
    185c:	e58d4014 	str	r4, [sp, #20]
    1860:	ebfffb88 	bl	688 <_SearchServerListIndex>
    1864:	e59f4230 	ldr	r4, [pc, #560]	; 1a9c <_TcpConnectServer+0x27c>
    1868:	e59f7230 	ldr	r7, [pc, #560]	; 1aa0 <_TcpConnectServer+0x280>
    186c:	e08f4004 	add	r4, pc, r4
    1870:	e5945000 	ldr	r5, [r4]
    1874:	e1500008 	cmp	r0, r8
    1878:	a1a07008 	movge	r7, r8
    187c:	e1550008 	cmp	r5, r8
    1880:	0a000071 	beq	1a4c <_TcpConnectServer+0x22c>
    1884:	e59fb218 	ldr	fp, [pc, #536]	; 1aa4 <_TcpConnectServer+0x284>
    1888:	e1a04000 	mov	r4, r0
    188c:	e08fb00b 	add	fp, pc, fp
    1890:	e24b0eaf 	sub	r0, fp, #2800	; 0xaf0
    1894:	e0645184 	rsb	r5, r4, r4, lsl #3
    1898:	e24baeae 	sub	sl, fp, #2784	; 0xae0
    189c:	ebfffffe 	bl	0 <pthread_mutex_lock>
			189c: R_ARM_CALL	pthread_mutex_lock
    18a0:	e24a900c 	sub	r9, sl, #12
    18a4:	e1a0c105 	lsl	ip, r5, #2
    18a8:	e089600c 	add	r6, r9, ip
    18ac:	e1d630b6 	ldrh	r3, [r6, #6]
    18b0:	e1530008 	cmp	r3, r8
    18b4:	0a000064 	beq	1a4c <_TcpConnectServer+0x22c>
    18b8:	e59d2014 	ldr	r2, [sp, #20]
    18bc:	e58d6020 	str	r6, [sp, #32]
    18c0:	e2825e71 	add	r5, r2, #1808	; 0x710
    18c4:	e58db018 	str	fp, [sp, #24]
    18c8:	e58dc01c 	str	ip, [sp, #28]
    18cc:	e1a0a008 	mov	sl, r8
    18d0:	e2855004 	add	r5, r5, #4
    18d4:	e59d6024 	ldr	r6, [sp, #36]	; 0x24
    18d8:	e28d9030 	add	r9, sp, #48	; 0x30
    18dc:	ea000035 	b	19b8 <_TcpConnectServer+0x198>
    18e0:	e5960000 	ldr	r0, [r6]
    18e4:	e2855040 	add	r5, r5, #64	; 0x40
    18e8:	e5903000 	ldr	r3, [r0]
    18ec:	e5933000 	ldr	r3, [r3]
    18f0:	e12fff33 	blx	r3
    18f4:	e4960004 	ldr	r0, [r6], #4
    18f8:	e5050058 	str	r0, [r5, #-88]	; 0xffffffa8
    18fc:	e59f11a4 	ldr	r1, [pc, #420]	; 1aa8 <_TcpConnectServer+0x288>
    1900:	e5903000 	ldr	r3, [r0]
    1904:	e08f1001 	add	r1, pc, r1
    1908:	e5933014 	ldr	r3, [r3, #20]
    190c:	e1a02004 	mov	r2, r4
    1910:	e12fff33 	blx	r3
    1914:	e59fe190 	ldr	lr, [pc, #400]	; 1aac <_TcpConnectServer+0x28c>
    1918:	e59fc190 	ldr	ip, [pc, #400]	; 1ab0 <_TcpConnectServer+0x290>
    191c:	e08fe00e 	add	lr, pc, lr
    1920:	e08fc00c 	add	ip, pc, ip
    1924:	e1a01009 	mov	r1, r9
    1928:	e28d202a 	add	r2, sp, #42	; 0x2a
    192c:	e1a03004 	mov	r3, r4
    1930:	e2507000 	subs	r7, r0, #0
    1934:	ba000044 	blt	1a4c <_TcpConnectServer+0x22c>
    1938:	e5160004 	ldr	r0, [r6, #-4]
    193c:	e5907000 	ldr	r7, [r0]
    1940:	e58de000 	str	lr, [sp]
    1944:	e59de014 	ldr	lr, [sp, #20]
    1948:	e58de004 	str	lr, [sp, #4]
    194c:	e58de00c 	str	lr, [sp, #12]
    1950:	e58dc008 	str	ip, [sp, #8]
    1954:	e597c008 	ldr	ip, [r7, #8]
    1958:	e12fff3c 	blx	ip
    195c:	e3a0102e 	mov	r1, #46	; 0x2e
    1960:	e1a02009 	mov	r2, r9
    1964:	e1a03004 	mov	r3, r4
    1968:	e1a07000 	mov	r7, r0
    196c:	e51b0adc 	ldr	r0, [fp, #-2780]	; 0xfffff524
    1970:	e58d4000 	str	r4, [sp]
    1974:	e0800008 	add	r0, r0, r8
    1978:	ebfffffe 	bl	0 <iotc_netaddr_get_content>
			1978: R_ARM_CALL	iotc_netaddr_get_content
    197c:	e1570004 	cmp	r7, r4
    1980:	e1a01004 	mov	r1, r4
    1984:	e28d202c 	add	r2, sp, #44	; 0x2c
    1988:	ba00002f 	blt	1a4c <_TcpConnectServer+0x22c>
    198c:	e5160004 	ldr	r0, [r6, #-4]
    1990:	e2888014 	add	r8, r8, #20
    1994:	e5903000 	ldr	r3, [r0]
    1998:	e5933028 	ldr	r3, [r3, #40]	; 0x28
    199c:	e12fff33 	blx	r3
    19a0:	e2507000 	subs	r7, r0, #0
    19a4:	ba000028 	blt	1a4c <_TcpConnectServer+0x22c>
    19a8:	e59d3020 	ldr	r3, [sp, #32]
    19ac:	e1d330b6 	ldrh	r3, [r3, #6]
    19b0:	e153000a 	cmp	r3, sl
    19b4:	da000024 	ble	1a4c <_TcpConnectServer+0x22c>
    19b8:	e59d4018 	ldr	r4, [sp, #24]
    19bc:	e59d201c 	ldr	r2, [sp, #28]
    19c0:	e1a00005 	mov	r0, r5
    19c4:	e084b002 	add	fp, r4, r2
    19c8:	e51b1adc 	ldr	r1, [fp, #-2780]	; 0xfffff524
    19cc:	e3a02014 	mov	r2, #20
    19d0:	e0811008 	add	r1, r1, r8
    19d4:	ebfffffe 	bl	0 <memcpy>
			19d4: R_ARM_CALL	memcpy
    19d8:	e2443e65 	sub	r3, r4, #1616	; 0x650
    19dc:	e153c0b8 	ldrh	ip, [r3, #-8]
    19e0:	e3a04000 	mov	r4, #0
    19e4:	e1a0342c 	lsr	r3, ip, #8
    19e8:	e183c40c 	orr	ip, r3, ip, lsl #8
    19ec:	e1a0c80c 	lsl	ip, ip, #16
    19f0:	e1a0c82c 	lsr	ip, ip, #16
    19f4:	e1c5c0b2 	strh	ip, [r5, #2]
    19f8:	e5c54000 	strb	r4, [r5]
    19fc:	e1a03004 	mov	r3, r4
    1a00:	e3a0102e 	mov	r1, #46	; 0x2e
    1a04:	e1a02009 	mov	r2, r9
    1a08:	e58d4000 	str	r4, [sp]
    1a0c:	e1a00005 	mov	r0, r5
    1a10:	e1cdc2ba 	strh	ip, [sp, #42]	; 0x2a
    1a14:	ebfffffe 	bl	0 <iotc_netaddr_get_content>
			1a14: R_ARM_CALL	iotc_netaddr_get_content
    1a18:	e59f3094 	ldr	r3, [pc, #148]	; 1ab4 <_TcpConnectServer+0x294>
    1a1c:	e1a01004 	mov	r1, r4
    1a20:	e08f3003 	add	r3, pc, r3
    1a24:	e5930000 	ldr	r0, [r3]
    1a28:	e1a02004 	mov	r2, r4
    1a2c:	e590c000 	ldr	ip, [r0]
    1a30:	e1a03004 	mov	r3, r4
    1a34:	e58d6000 	str	r6, [sp]
    1a38:	e59cc008 	ldr	ip, [ip, #8]
    1a3c:	e12fff3c 	blx	ip
    1a40:	e28aa001 	add	sl, sl, #1
    1a44:	e2507000 	subs	r7, r0, #0
    1a48:	aaffffa4 	bge	18e0 <_TcpConnectServer+0xc0>
    1a4c:	e59f0064 	ldr	r0, [pc, #100]	; 1ab8 <_TcpConnectServer+0x298>
    1a50:	e59d4024 	ldr	r4, [sp, #36]	; 0x24
    1a54:	e08f0000 	add	r0, pc, r0
    1a58:	e2400eaf 	sub	r0, r0, #2800	; 0xaf0
    1a5c:	ebfffffe 	bl	0 <pthread_mutex_unlock>
			1a5c: R_ARM_CALL	pthread_mutex_unlock
    1a60:	e28d6090 	add	r6, sp, #144	; 0x90
    1a64:	e3a05000 	mov	r5, #0
    1a68:	e5943000 	ldr	r3, [r4]
    1a6c:	e2530000 	subs	r0, r3, #0
    1a70:	0a000002 	beq	1a80 <_TcpConnectServer+0x260>
    1a74:	e5933000 	ldr	r3, [r3]
    1a78:	e5933004 	ldr	r3, [r3, #4]
    1a7c:	e12fff33 	blx	r3
    1a80:	e4845004 	str	r5, [r4], #4
    1a84:	e1540006 	cmp	r4, r6
    1a88:	1afffff6 	bne	1a68 <_TcpConnectServer+0x248>
    1a8c:	e1a00007 	mov	r0, r7
    1a90:	e28dd0e4 	add	sp, sp, #228	; 0xe4
    1a94:	e8bd8ff0 	pop	{r4, r5, r6, r7, r8, r9, sl, fp, pc}
    1a98:	00000588 	.word	0x00000588
    1a9c:	00000228 	.word	0x00000228
			1a9c: R_ARM_REL32	.bss
    1aa0:	0110017d 	.word	0x0110017d
    1aa4:	00002208 	.word	0x00002208
			1aa4: R_ARM_REL32	.bss
    1aa8:	0001c788 	.word	0x0001c788
    1aac:	ffffe988 	.word	0xffffe988
    1ab0:	ffffe9dc 	.word	0xffffe9dc
    1ab4:	0000008c 	.word	0x0000008c
			1ab4: R_ARM_REL32	.bss
    1ab8:	00002054 	.word	0x00002054
			1ab8: R_ARM_REL32	.bss

00001abc <update_lan_search_record_ip_port>:
    1abc:	e92d41f0 	push	{r4, r5, r6, r7, r8, lr}
    1ac0:	e3530000 	cmp	r3, #0
    1ac4:	e1a07002 	mov	r7, r2
    1ac8:	e59d6018 	ldr	r6, [sp, #24]
    1acc:	e1dd41bc 	ldrh	r4, [sp, #28]
    1ad0:	0a000008 	beq	1af8 <update_lan_search_record_ip_port+0x3c>
    1ad4:	e2412001 	sub	r2, r1, #1
    1ad8:	e1520006 	cmp	r2, r6
    1adc:	e1a05001 	mov	r5, r1
    1ae0:	e1a08000 	mov	r8, r0
    1ae4:	e1a01003 	mov	r1, r3
    1ae8:	8a000006 	bhi	1b08 <update_lan_search_record_ip_port+0x4c>
    1aec:	ebfffffe 	bl	0 <strcpy>
			1aec: R_ARM_CALL	strcpy
    1af0:	e3a03000 	mov	r3, #0
    1af4:	e7c83005 	strb	r3, [r8, r5]
    1af8:	e1a03424 	lsr	r3, r4, #8
    1afc:	e1833404 	orr	r3, r3, r4, lsl #8
    1b00:	e1c730b0 	strh	r3, [r7]
    1b04:	e8bd81f0 	pop	{r4, r5, r6, r7, r8, pc}
    1b08:	ebfffffe 	bl	0 <strcpy>
			1b08: R_ARM_CALL	strcpy
    1b0c:	e3a03000 	mov	r3, #0
    1b10:	e7c83006 	strb	r3, [r8, r6]
    1b14:	eafffff7 	b	1af8 <update_lan_search_record_ip_port+0x3c>

00001b18 <update_lan_search_record_device_name>:
    1b18:	e3520000 	cmp	r2, #0
    1b1c:	012fff1e 	bxeq	lr
    1b20:	e92d4070 	push	{r4, r5, r6, lr}
    1b24:	e1a04001 	mov	r4, r1
    1b28:	e1a05003 	mov	r5, r3
    1b2c:	e2443001 	sub	r3, r4, #1
    1b30:	e1530005 	cmp	r3, r5
    1b34:	e1a06000 	mov	r6, r0
    1b38:	e1a01002 	mov	r1, r2
    1b3c:	8a000003 	bhi	1b50 <update_lan_search_record_device_name+0x38>
    1b40:	ebfffffe 	bl	0 <strcpy>
			1b40: R_ARM_CALL	strcpy
    1b44:	e3a03000 	mov	r3, #0
    1b48:	e7c63004 	strb	r3, [r6, r4]
    1b4c:	e8bd8070 	pop	{r4, r5, r6, pc}
    1b50:	ebfffffe 	bl	0 <strcpy>
			1b50: R_ARM_CALL	strcpy
    1b54:	e3a03000 	mov	r3, #0
    1b58:	e7c63005 	strb	r3, [r6, r5]
    1b5c:	e8bd8070 	pop	{r4, r5, r6, pc}

00001b60 <_IOTC_GetLocalIPAddr>:
    1b60:	e92d4030 	push	{r4, r5, lr}
    1b64:	e3a03000 	mov	r3, #0
    1b68:	e24dd07c 	sub	sp, sp, #124	; 0x7c
    1b6c:	e2502000 	subs	r2, r0, #0
    1b70:	e1cd30b6 	strh	r3, [sp, #6]
    1b74:	0a00004d 	beq	1cb0 <_IOTC_GetLocalIPAddr+0x150>
    1b78:	e5922000 	ldr	r2, [r2]
    1b7c:	e28d4018 	add	r4, sp, #24
    1b80:	e58d3018 	str	r3, [sp, #24]
    1b84:	e58d301c 	str	r3, [sp, #28]
    1b88:	e58d3020 	str	r3, [sp, #32]
    1b8c:	e58d3024 	str	r3, [sp, #36]	; 0x24
    1b90:	e58d3028 	str	r3, [sp, #40]	; 0x28
    1b94:	e58d302c 	str	r3, [sp, #44]	; 0x2c
    1b98:	e58d3030 	str	r3, [sp, #48]	; 0x30
    1b9c:	e58d3034 	str	r3, [sp, #52]	; 0x34
    1ba0:	e58d3038 	str	r3, [sp, #56]	; 0x38
    1ba4:	e58d303c 	str	r3, [sp, #60]	; 0x3c
    1ba8:	e58d3040 	str	r3, [sp, #64]	; 0x40
    1bac:	e1cd34b4 	strh	r3, [sp, #68]	; 0x44
    1bb0:	e58d3048 	str	r3, [sp, #72]	; 0x48
    1bb4:	e58d304c 	str	r3, [sp, #76]	; 0x4c
    1bb8:	e58d3050 	str	r3, [sp, #80]	; 0x50
    1bbc:	e58d3054 	str	r3, [sp, #84]	; 0x54
    1bc0:	e58d3058 	str	r3, [sp, #88]	; 0x58
    1bc4:	e58d305c 	str	r3, [sp, #92]	; 0x5c
    1bc8:	e58d3060 	str	r3, [sp, #96]	; 0x60
    1bcc:	e58d3064 	str	r3, [sp, #100]	; 0x64
    1bd0:	e58d3068 	str	r3, [sp, #104]	; 0x68
    1bd4:	e58d306c 	str	r3, [sp, #108]	; 0x6c
    1bd8:	e58d3070 	str	r3, [sp, #112]	; 0x70
    1bdc:	e1cd37b4 	strh	r3, [sp, #116]	; 0x74
    1be0:	e58d3008 	str	r3, [sp, #8]
    1be4:	e592c020 	ldr	ip, [r2, #32]
    1be8:	e58d300c 	str	r3, [sp, #12]
    1bec:	e58d3010 	str	r3, [sp, #16]
    1bf0:	e58d3014 	str	r3, [sp, #20]
    1bf4:	e1a01004 	mov	r1, r4
    1bf8:	e28d2006 	add	r2, sp, #6
    1bfc:	e12fff3c 	blx	ip
    1c00:	e1a00004 	mov	r0, r4
    1c04:	e3a0103a 	mov	r1, #58	; 0x3a
    1c08:	ebfffffe 	bl	0 <strchr>
			1c08: R_ARM_CALL	strchr
    1c0c:	e28d5008 	add	r5, sp, #8
    1c10:	e3500000 	cmp	r0, #0
    1c14:	e1a00004 	mov	r0, r4
    1c18:	0a00001f 	beq	1c9c <_IOTC_GetLocalIPAddr+0x13c>
    1c1c:	e59f1094 	ldr	r1, [pc, #148]	; 1cb8 <_IOTC_GetLocalIPAddr+0x158>
    1c20:	e08f1001 	add	r1, pc, r1
    1c24:	ebfffffe 	bl	0 <strstr>
			1c24: R_ARM_CALL	strstr
    1c28:	e3500000 	cmp	r0, #0
    1c2c:	0a00000a 	beq	1c5c <_IOTC_GetLocalIPAddr+0xfc>
    1c30:	e1a00004 	mov	r0, r4
    1c34:	ebfffffe 	bl	0 <strlen>
			1c34: R_ARM_CALL	strlen
    1c38:	e28d101f 	add	r1, sp, #31
    1c3c:	e2402007 	sub	r2, r0, #7
    1c40:	e1a00005 	mov	r0, r5
    1c44:	ebfffffe 	bl	0 <strncpy>
			1c44: R_ARM_CALL	strncpy
    1c48:	e1a00005 	mov	r0, r5
    1c4c:	ebfffffe 	bl	0 <inet_addr>
			1c4c: R_ARM_CALL	inet_addr
    1c50:	e59f3064 	ldr	r3, [pc, #100]	; 1cbc <_IOTC_GetLocalIPAddr+0x15c>
    1c54:	e08f3003 	add	r3, pc, r3
    1c58:	e5030650 	str	r0, [r3, #-1616]	; 0xfffff9b0
    1c5c:	e59f305c 	ldr	r3, [pc, #92]	; 1cc0 <_IOTC_GetLocalIPAddr+0x160>
    1c60:	e3a0102e 	mov	r1, #46	; 0x2e
    1c64:	e08f3003 	add	r3, pc, r3
    1c68:	e2432d19 	sub	r2, r3, #1600	; 0x640
    1c6c:	e152c0b4 	ldrh	ip, [r2, #-4]
    1c70:	e2433e65 	sub	r3, r3, #1616	; 0x650
    1c74:	e2433004 	sub	r3, r3, #4
    1c78:	e1a0242c 	lsr	r2, ip, #8
    1c7c:	e182c40c 	orr	ip, r2, ip, lsl #8
    1c80:	e1a00003 	mov	r0, r3
    1c84:	e28d2048 	add	r2, sp, #72	; 0x48
    1c88:	e1c3c0b2 	strh	ip, [r3, #2]
    1c8c:	ebfffffe 	bl	0 <iotc_sockaddr_to_ip_string>
			1c8c: R_ARM_CALL	iotc_sockaddr_to_ip_string
    1c90:	e3a00000 	mov	r0, #0
    1c94:	e28dd07c 	add	sp, sp, #124	; 0x7c
    1c98:	e8bd8030 	pop	{r4, r5, pc}
    1c9c:	ebfffffe 	bl	0 <inet_addr>
			1c9c: R_ARM_CALL	inet_addr
    1ca0:	e59f301c 	ldr	r3, [pc, #28]	; 1cc4 <_IOTC_GetLocalIPAddr+0x164>
    1ca4:	e08f3003 	add	r3, pc, r3
    1ca8:	e5030650 	str	r0, [r3, #-1616]	; 0xfffff9b0
    1cac:	eaffffea 	b	1c5c <_IOTC_GetLocalIPAddr+0xfc>
    1cb0:	e3e00000 	mvn	r0, #0
    1cb4:	eafffff6 	b	1c94 <_IOTC_GetLocalIPAddr+0x134>
    1cb8:	00000090 	.word	0x00000090
			1cb8: R_ARM_REL32	.LC3
    1cbc:	00002058 	.word	0x00002058
			1cbc: R_ARM_REL32	.bss
    1cc0:	0000204c 	.word	0x0000204c
			1cc0: R_ARM_REL32	.bss
    1cc4:	00002010 	.word	0x00002010
			1cc4: R_ARM_REL32	.bss

00001cc8 <IOTC_TcpConnectToMasterTryPortSetupSuccCB>:
    1cc8:	e92d4ff0 	push	{r4, r5, r6, r7, r8, r9, sl, fp, lr}
    1ccc:	e59f30dc 	ldr	r3, [pc, #220]	; 1db0 <IOTC_TcpConnectToMasterTryPortSetupSuccCB+0xe8>
    1cd0:	e59f80dc 	ldr	r8, [pc, #220]	; 1db4 <IOTC_TcpConnectToMasterTryPortSetupSuccCB+0xec>
    1cd4:	e08f3003 	add	r3, pc, r3
    1cd8:	e08f8008 	add	r8, pc, r8
    1cdc:	e59f60d4 	ldr	r6, [pc, #212]	; 1db8 <IOTC_TcpConnectToMasterTryPortSetupSuccCB+0xf0>
    1ce0:	e2817e5a 	add	r7, r1, #1440	; 0x5a0
    1ce4:	e2439e76 	sub	r9, r3, #1888	; 0x760
    1ce8:	e2488e76 	sub	r8, r8, #1888	; 0x760
    1cec:	e24dd00c 	sub	sp, sp, #12
    1cf0:	e1a0a001 	mov	sl, r1
    1cf4:	e08f6006 	add	r6, pc, r6
    1cf8:	e1a0b000 	mov	fp, r0
    1cfc:	e2875004 	add	r5, r7, #4
    1d00:	e249900c 	sub	r9, r9, #12
    1d04:	e248800c 	sub	r8, r8, #12
    1d08:	e2814e57 	add	r4, r1, #1392	; 0x570
    1d0c:	e58d3004 	str	r3, [sp, #4]
    1d10:	e5b43004 	ldr	r3, [r4, #4]!
    1d14:	e153000b 	cmp	r3, fp
    1d18:	0a000010 	beq	1d60 <IOTC_TcpConnectToMasterTryPortSetupSuccCB+0x98>
    1d1c:	e1540007 	cmp	r4, r7
    1d20:	e2866002 	add	r6, r6, #2
    1d24:	e2855001 	add	r5, r5, #1
    1d28:	1afffff8 	bne	1d10 <IOTC_TcpConnectToMasterTryPortSetupSuccCB+0x48>
    1d2c:	e59f4088 	ldr	r4, [pc, #136]	; 1dbc <IOTC_TcpConnectToMasterTryPortSetupSuccCB+0xf4>
    1d30:	e08f4004 	add	r4, pc, r4
    1d34:	e2444e76 	sub	r4, r4, #1888	; 0x760
    1d38:	e2444008 	sub	r4, r4, #8
    1d3c:	e1a00004 	mov	r0, r4
    1d40:	ebfffffe 	bl	0 <pthread_mutex_lock>
			1d40: R_ARM_CALL	pthread_mutex_lock
    1d44:	e5da3571 	ldrb	r3, [sl, #1393]	; 0x571
    1d48:	e1a00004 	mov	r0, r4
    1d4c:	e2433001 	sub	r3, r3, #1
    1d50:	e5ca3571 	strb	r3, [sl, #1393]	; 0x571
    1d54:	e28dd00c 	add	sp, sp, #12
    1d58:	e8bd4ff0 	pop	{r4, r5, r6, r7, r8, r9, sl, fp, lr}
    1d5c:	eafffffe 	b	0 <pthread_mutex_unlock>
			1d5c: R_ARM_JUMP24	pthread_mutex_unlock
    1d60:	e1a00009 	mov	r0, r9
    1d64:	ebfffffe 	bl	0 <pthread_mutex_lock>
			1d64: R_ARM_CALL	pthread_mutex_lock
    1d68:	e5da2570 	ldrb	r2, [sl, #1392]	; 0x570
    1d6c:	e59d3004 	ldr	r3, [sp, #4]
    1d70:	e2822001 	add	r2, r2, #1
    1d74:	e2433e65 	sub	r3, r3, #1616	; 0x650
    1d78:	e3a0c001 	mov	ip, #1
    1d7c:	e5ca2570 	strb	r2, [sl, #1392]	; 0x570
    1d80:	e1d600b0 	ldrh	r0, [r6]
    1d84:	e5c5c000 	strb	ip, [r5]
    1d88:	e15320b2 	ldrh	r2, [r3, #-2]
    1d8c:	e14300b8 	strh	r0, [r3, #-8]
    1d90:	e3520000 	cmp	r2, #0
    1d94:	0a000002 	beq	1da4 <IOTC_TcpConnectToMasterTryPortSetupSuccCB+0xdc>
    1d98:	e1a00008 	mov	r0, r8
    1d9c:	ebfffffe 	bl	0 <pthread_mutex_unlock>
			1d9c: R_ARM_CALL	pthread_mutex_unlock
    1da0:	eaffffdd 	b	1d1c <IOTC_TcpConnectToMasterTryPortSetupSuccCB+0x54>
    1da4:	e1a0000b 	mov	r0, fp
    1da8:	ebffff6c 	bl	1b60 <_IOTC_GetLocalIPAddr>
    1dac:	eafffff9 	b	1d98 <IOTC_TcpConnectToMasterTryPortSetupSuccCB+0xd0>
    1db0:	000020cc 	.word	0x000020cc
			1db0: R_ARM_REL32	.bss
    1db4:	000020cc 	.word	0x000020cc
			1db4: R_ARM_REL32	.bss
    1db8:	000000bc 	.word	0x000000bc
			1db8: R_ARM_REL32	.rodata
    1dbc:	0000207c 	.word	0x0000207c
			1dbc: R_ARM_REL32	.bss

00001dc0 <DetectNetworkReachableSetupSuccCB>:
    1dc0:	e92d4038 	push	{r3, r4, r5, lr}
    1dc4:	e59f4058 	ldr	r4, [pc, #88]	; 1e24 <DetectNetworkReachableSetupSuccCB+0x64>
    1dc8:	e1a05000 	mov	r5, r0
    1dcc:	e08f4004 	add	r4, pc, r4
    1dd0:	e2440e76 	sub	r0, r4, #1888	; 0x760
    1dd4:	e3a03001 	mov	r3, #1
    1dd8:	e2400008 	sub	r0, r0, #8
    1ddc:	e5443642 	strb	r3, [r4, #-1602]	; 0xfffff9be
    1de0:	ebfffffe 	bl	0 <pthread_mutex_lock>
			1de0: R_ARM_CALL	pthread_mutex_lock
    1de4:	e5543641 	ldrb	r3, [r4, #-1601]	; 0xfffff9bf
    1de8:	e3530000 	cmp	r3, #0
    1dec:	12433001 	subne	r3, r3, #1
    1df0:	15443641 	strbne	r3, [r4, #-1601]	; 0xfffff9bf
    1df4:	e59f402c 	ldr	r4, [pc, #44]	; 1e28 <DetectNetworkReachableSetupSuccCB+0x68>
    1df8:	e08f4004 	add	r4, pc, r4
    1dfc:	e2440e76 	sub	r0, r4, #1888	; 0x760
    1e00:	e2400008 	sub	r0, r0, #8
    1e04:	e2444e65 	sub	r4, r4, #1616	; 0x650
    1e08:	ebfffffe 	bl	0 <pthread_mutex_unlock>
			1e08: R_ARM_CALL	pthread_mutex_unlock
    1e0c:	e15430b2 	ldrh	r3, [r4, #-2]
    1e10:	e3530000 	cmp	r3, #0
    1e14:	18bd8038 	popne	{r3, r4, r5, pc}
    1e18:	e1a00005 	mov	r0, r5
    1e1c:	e8bd4038 	pop	{r3, r4, r5, lr}
    1e20:	eaffff4e 	b	1b60 <_IOTC_GetLocalIPAddr>
    1e24:	00002048 	.word	0x00002048
			1e24: R_ARM_REL32	.bss
    1e28:	00002020 	.word	0x00002020
			1e28: R_ARM_REL32	.bss

00001e2c <DetectNetworkReachableSetupSuccCBNB>:
    1e2c:	e59f3038 	ldr	r3, [pc, #56]	; 1e6c <DetectNetworkReachableSetupSuccCBNB+0x40>
    1e30:	e59126bc 	ldr	r2, [r1, #1724]	; 0x6bc
    1e34:	e08f3003 	add	r3, pc, r3
    1e38:	e243ce65 	sub	ip, r3, #1616	; 0x650
    1e3c:	e52de004 	push	{lr}		; (str lr, [sp, #-4]!)
    1e40:	e15ce0b2 	ldrh	lr, [ip, #-2]
    1e44:	e3520001 	cmp	r2, #1
    1e48:	93a02001 	movls	r2, #1
    1e4c:	83a02003 	movhi	r2, #3
    1e50:	e3a0c001 	mov	ip, #1
    1e54:	e35e0000 	cmp	lr, #0
    1e58:	e58126bc 	str	r2, [r1, #1724]	; 0x6bc
    1e5c:	e543c642 	strb	ip, [r3, #-1602]	; 0xfffff9be
    1e60:	149df004 	popne	{pc}		; (ldrne pc, [sp], #4)
    1e64:	e49de004 	pop	{lr}		; (ldr lr, [sp], #4)
    1e68:	eaffff3c 	b	1b60 <_IOTC_GetLocalIPAddr>
    1e6c:	00002028 	.word	0x00002028
			1e6c: R_ARM_REL32	.bss

00001e70 <_TcpConnectMasterSetupSuccCB>:
    1e70:	e5913574 	ldr	r3, [r1, #1396]	; 0x574
    1e74:	e52de004 	push	{lr}		; (str lr, [sp, #-4]!)
    1e78:	e1530000 	cmp	r3, r0
    1e7c:	0a000036 	beq	1f5c <_TcpConnectMasterSetupSuccCB+0xec>
    1e80:	e5913578 	ldr	r3, [r1, #1400]	; 0x578
    1e84:	e1530000 	cmp	r3, r0
    1e88:	0a000035 	beq	1f64 <_TcpConnectMasterSetupSuccCB+0xf4>
    1e8c:	e591357c 	ldr	r3, [r1, #1404]	; 0x57c
    1e90:	e1530000 	cmp	r3, r0
    1e94:	0a000034 	beq	1f6c <_TcpConnectMasterSetupSuccCB+0xfc>
    1e98:	e5913580 	ldr	r3, [r1, #1408]	; 0x580
    1e9c:	e1530000 	cmp	r3, r0
    1ea0:	0a000033 	beq	1f74 <_TcpConnectMasterSetupSuccCB+0x104>
    1ea4:	e5913584 	ldr	r3, [r1, #1412]	; 0x584
    1ea8:	e1530000 	cmp	r3, r0
    1eac:	0a000032 	beq	1f7c <_TcpConnectMasterSetupSuccCB+0x10c>
    1eb0:	e5913588 	ldr	r3, [r1, #1416]	; 0x588
    1eb4:	e1530000 	cmp	r3, r0
    1eb8:	0a000031 	beq	1f84 <_TcpConnectMasterSetupSuccCB+0x114>
    1ebc:	e591358c 	ldr	r3, [r1, #1420]	; 0x58c
    1ec0:	e1530000 	cmp	r3, r0
    1ec4:	0a000030 	beq	1f8c <_TcpConnectMasterSetupSuccCB+0x11c>
    1ec8:	e5913590 	ldr	r3, [r1, #1424]	; 0x590
    1ecc:	e1530000 	cmp	r3, r0
    1ed0:	0a00002f 	beq	1f94 <_TcpConnectMasterSetupSuccCB+0x124>
    1ed4:	e5913594 	ldr	r3, [r1, #1428]	; 0x594
    1ed8:	e1530000 	cmp	r3, r0
    1edc:	0a00002e 	beq	1f9c <_TcpConnectMasterSetupSuccCB+0x12c>
    1ee0:	e5913598 	ldr	r3, [r1, #1432]	; 0x598
    1ee4:	e1530000 	cmp	r3, r0
    1ee8:	0a00002d 	beq	1fa4 <_TcpConnectMasterSetupSuccCB+0x134>
    1eec:	e591359c 	ldr	r3, [r1, #1436]	; 0x59c
    1ef0:	e1530000 	cmp	r3, r0
    1ef4:	0a00002c 	beq	1fac <_TcpConnectMasterSetupSuccCB+0x13c>
    1ef8:	e59135a0 	ldr	r3, [r1, #1440]	; 0x5a0
    1efc:	e1530000 	cmp	r3, r0
    1f00:	03a0000b 	moveq	r0, #11
    1f04:	149df004 	popne	{pc}		; (ldrne pc, [sp], #4)
    1f08:	e59f30a4 	ldr	r3, [pc, #164]	; 1fb4 <_TcpConnectMasterSetupSuccCB+0x144>
    1f0c:	e0812000 	add	r2, r1, r0
    1f10:	e08f3003 	add	r3, pc, r3
    1f14:	e2433e65 	sub	r3, r3, #1616	; 0x650
    1f18:	e153e0b8 	ldrh	lr, [r3, #-8]
    1f1c:	e3a0c001 	mov	ip, #1
    1f20:	e35e0000 	cmp	lr, #0
    1f24:	e5c2c5b0 	strb	ip, [r2, #1456]	; 0x5b0
    1f28:	1a000004 	bne	1f40 <_TcpConnectMasterSetupSuccCB+0xd0>
    1f2c:	e59f2084 	ldr	r2, [pc, #132]	; 1fb8 <_TcpConnectMasterSetupSuccCB+0x148>
    1f30:	e1a00c10 	lsl	r0, r0, ip
    1f34:	e08f2002 	add	r2, pc, r2
    1f38:	e19220b0 	ldrh	r2, [r2, r0]
    1f3c:	e14320b8 	strh	r2, [r3, #-8]
    1f40:	e591364c 	ldr	r3, [r1, #1612]	; 0x64c
    1f44:	e3530002 	cmp	r3, #2
    1f48:	03a02004 	moveq	r2, #4
    1f4c:	03a03000 	moveq	r3, #0
    1f50:	0581264c 	streq	r2, [r1, #1612]	; 0x64c
    1f54:	0581366c 	streq	r3, [r1, #1644]	; 0x66c
    1f58:	e49df004 	pop	{pc}		; (ldr pc, [sp], #4)
    1f5c:	e3a00000 	mov	r0, #0
    1f60:	eaffffe8 	b	1f08 <_TcpConnectMasterSetupSuccCB+0x98>
    1f64:	e3a00001 	mov	r0, #1
    1f68:	eaffffe6 	b	1f08 <_TcpConnectMasterSetupSuccCB+0x98>
    1f6c:	e3a00002 	mov	r0, #2
    1f70:	eaffffe4 	b	1f08 <_TcpConnectMasterSetupSuccCB+0x98>
    1f74:	e3a00003 	mov	r0, #3
    1f78:	eaffffe2 	b	1f08 <_TcpConnectMasterSetupSuccCB+0x98>
    1f7c:	e3a00004 	mov	r0, #4
    1f80:	eaffffe0 	b	1f08 <_TcpConnectMasterSetupSuccCB+0x98>
    1f84:	e3a00005 	mov	r0, #5
    1f88:	eaffffde 	b	1f08 <_TcpConnectMasterSetupSuccCB+0x98>
    1f8c:	e3a00006 	mov	r0, #6
    1f90:	eaffffdc 	b	1f08 <_TcpConnectMasterSetupSuccCB+0x98>
    1f94:	e3a00007 	mov	r0, #7
    1f98:	eaffffda 	b	1f08 <_TcpConnectMasterSetupSuccCB+0x98>
    1f9c:	e3a00008 	mov	r0, #8
    1fa0:	eaffffd8 	b	1f08 <_TcpConnectMasterSetupSuccCB+0x98>
    1fa4:	e3a00009 	mov	r0, #9
    1fa8:	eaffffd6 	b	1f08 <_TcpConnectMasterSetupSuccCB+0x98>
    1fac:	e3a0000a 	mov	r0, #10
    1fb0:	eaffffd4 	b	1f08 <_TcpConnectMasterSetupSuccCB+0x98>
    1fb4:	00002094 	.word	0x00002094
			1fb4: R_ARM_REL32	.bss
    1fb8:	0000007c 	.word	0x0000007c
			1fb8: R_ARM_REL32	.rodata

00001fbc <RefTryPortSkt>:
    1fbc:	e3500000 	cmp	r0, #0
    1fc0:	012fff1e 	bxeq	lr
    1fc4:	e92d4038 	push	{r3, r4, r5, lr}
    1fc8:	e59f4058 	ldr	r4, [pc, #88]	; 2028 <RefTryPortSkt+0x6c>
    1fcc:	e08f4004 	add	r4, pc, r4
    1fd0:	e514365c 	ldr	r3, [r4, #-1628]	; 0xfffff9a4
    1fd4:	e1530000 	cmp	r3, r0
    1fd8:	08bd8038 	popeq	{r3, r4, r5, pc}
    1fdc:	e1a05000 	mov	r5, r0
    1fe0:	e2440d19 	sub	r0, r4, #1600	; 0x640
    1fe4:	ebfffffe 	bl	0 <pthread_mutex_lock>
			1fe4: R_ARM_CALL	pthread_mutex_lock
    1fe8:	e2443e63 	sub	r3, r4, #1584	; 0x630
    1fec:	e243300c 	sub	r3, r3, #12
    1ff0:	e2831e73 	add	r1, r3, #1840	; 0x730
    1ff4:	e5932000 	ldr	r2, [r3]
    1ff8:	e2833008 	add	r3, r3, #8
    1ffc:	e1550002 	cmp	r5, r2
    2000:	05132004 	ldreq	r2, [r3, #-4]
    2004:	02822001 	addeq	r2, r2, #1
    2008:	05032004 	streq	r2, [r3, #-4]
    200c:	e1530001 	cmp	r3, r1
    2010:	1afffff7 	bne	1ff4 <RefTryPortSkt+0x38>
    2014:	e59f0010 	ldr	r0, [pc, #16]	; 202c <RefTryPortSkt+0x70>
    2018:	e8bd4038 	pop	{r3, r4, r5, lr}
    201c:	e08f0000 	add	r0, pc, r0
    2020:	e2400d19 	sub	r0, r0, #1600	; 0x640
    2024:	eafffffe 	b	0 <pthread_mutex_unlock>
			2024: R_ARM_JUMP24	pthread_mutex_unlock
    2028:	0000204c 	.word	0x0000204c
			2028: R_ARM_REL32	.bss
    202c:	00002000 	.word	0x00002000
			202c: R_ARM_REL32	.bss

00002030 <iotc_set_master_resolved_status>:
    2030:	e92d4070 	push	{r4, r5, r6, lr}
    2034:	e59f5044 	ldr	r5, [pc, #68]	; 2080 <iotc_set_master_resolved_status+0x50>
    2038:	e1a06000 	mov	r6, r0
    203c:	e08f5005 	add	r5, pc, r5
    2040:	e2454e76 	sub	r4, r5, #1888	; 0x760
    2044:	e2444008 	sub	r4, r4, #8
    2048:	e1a00004 	mov	r0, r4
    204c:	ebfffffe 	bl	0 <pthread_mutex_lock>
			204c: R_ARM_CALL	pthread_mutex_lock
    2050:	e1a00004 	mov	r0, r4
    2054:	e58560f4 	str	r6, [r5, #244]	; 0xf4
    2058:	ebfffffe 	bl	0 <pthread_mutex_unlock>
			2058: R_ARM_CALL	pthread_mutex_unlock
    205c:	e3560000 	cmp	r6, #0
    2060:	18bd8070 	popne	{r4, r5, r6, pc}
    2064:	e28540f8 	add	r4, r5, #248	; 0xf8
    2068:	e1a00004 	mov	r0, r4
    206c:	ebfffffe 	bl	0 <pthread_mutex_lock>
			206c: R_ARM_CALL	pthread_mutex_lock
    2070:	e1a00004 	mov	r0, r4
    2074:	e58560fc 	str	r6, [r5, #252]	; 0xfc
    2078:	e8bd4070 	pop	{r4, r5, r6, lr}
    207c:	eafffffe 	b	0 <pthread_mutex_unlock>
			207c: R_ARM_JUMP24	pthread_mutex_unlock
    2080:	00002034 	.word	0x00002034
			2080: R_ARM_REL32	.bss

00002084 <CloseAllTcpMasterConnections.part.14>:
    2084:	e92d4ff8 	push	{r3, r4, r5, r6, r7, r8, r9, sl, fp, lr}
    2088:	e59f6080 	ldr	r6, [pc, #128]	; 2110 <CloseAllTcpMasterConnections.part.14+0x8c>
    208c:	e2807e5a 	add	r7, r0, #1440	; 0x5a0
    2090:	e08f6006 	add	r6, pc, r6
    2094:	e2466e76 	sub	r6, r6, #1888	; 0x760
    2098:	e59fa074 	ldr	sl, [pc, #116]	; 2114 <CloseAllTcpMasterConnections.part.14+0x90>
    209c:	e2877004 	add	r7, r7, #4
    20a0:	e2800e57 	add	r0, r0, #1392	; 0x570
    20a4:	e246600c 	sub	r6, r6, #12
    20a8:	e08fa00a 	add	sl, pc, sl
    20ac:	e2804004 	add	r4, r0, #4
    20b0:	e1a05007 	mov	r5, r7
    20b4:	e1a08006 	mov	r8, r6
    20b8:	e3a09000 	mov	r9, #0
    20bc:	e3a0b002 	mov	fp, #2
    20c0:	e1a00006 	mov	r0, r6
    20c4:	ebfffffe 	bl	0 <pthread_mutex_lock>
			20c4: R_ARM_CALL	pthread_mutex_lock
    20c8:	e5943000 	ldr	r3, [r4]
    20cc:	e2531000 	subs	r1, r3, #0
    20d0:	0a000007 	beq	20f4 <CloseAllTcpMasterConnections.part.14+0x70>
    20d4:	e59a0000 	ldr	r0, [sl]
    20d8:	e5903000 	ldr	r3, [r0]
    20dc:	e593300c 	ldr	r3, [r3, #12]
    20e0:	e12fff33 	blx	r3
    20e4:	e5849000 	str	r9, [r4]
    20e8:	e5d53000 	ldrb	r3, [r5]
    20ec:	e3530001 	cmp	r3, #1
    20f0:	15c5b000 	strbne	fp, [r5]
    20f4:	e2844004 	add	r4, r4, #4
    20f8:	e1a00008 	mov	r0, r8
    20fc:	ebfffffe 	bl	0 <pthread_mutex_unlock>
			20fc: R_ARM_CALL	pthread_mutex_unlock
    2100:	e1540007 	cmp	r4, r7
    2104:	e2855001 	add	r5, r5, #1
    2108:	1affffec 	bne	20c0 <CloseAllTcpMasterConnections.part.14+0x3c>
    210c:	e8bd8ff8 	pop	{r3, r4, r5, r6, r7, r8, r9, sl, fp, pc}
    2110:	00002070 	.word	0x00002070
			2110: R_ARM_REL32	.bss
    2114:	00000064 	.word	0x00000064
			2114: R_ARM_REL32	.bss

00002118 <DetectNetworkReachableSetupFailCB>:
    2118:	e92d4038 	push	{r3, r4, r5, lr}
    211c:	e59f3070 	ldr	r3, [pc, #112]	; 2194 <DetectNetworkReachableSetupFailCB+0x7c>
    2120:	e08f3003 	add	r3, pc, r3
    2124:	e5933000 	ldr	r3, [r3]
    2128:	e3530000 	cmp	r3, #0
    212c:	08bd8038 	popeq	{r3, r4, r5, pc}
    2130:	e1a04002 	mov	r4, r2
    2134:	e5932000 	ldr	r2, [r3]
    2138:	e1a01000 	mov	r1, r0
    213c:	e592200c 	ldr	r2, [r2, #12]
    2140:	e1a00003 	mov	r0, r3
    2144:	e12fff32 	blx	r2
    2148:	e3500000 	cmp	r0, #0
    214c:	b8bd8038 	poplt	{r3, r4, r5, pc}
    2150:	e59f5040 	ldr	r5, [pc, #64]	; 2198 <DetectNetworkReachableSetupFailCB+0x80>
    2154:	e3a03000 	mov	r3, #0
    2158:	e08f5005 	add	r5, pc, r5
    215c:	e2450e76 	sub	r0, r5, #1888	; 0x760
    2160:	e5843000 	str	r3, [r4]
    2164:	e2400008 	sub	r0, r0, #8
    2168:	ebfffffe 	bl	0 <pthread_mutex_lock>
			2168: R_ARM_CALL	pthread_mutex_lock
    216c:	e5553641 	ldrb	r3, [r5, #-1601]	; 0xfffff9bf
    2170:	e59f0024 	ldr	r0, [pc, #36]	; 219c <DetectNetworkReachableSetupFailCB+0x84>
    2174:	e3530000 	cmp	r3, #0
    2178:	e08f0000 	add	r0, pc, r0
    217c:	12433001 	subne	r3, r3, #1
    2180:	e2400e76 	sub	r0, r0, #1888	; 0x760
    2184:	15453641 	strbne	r3, [r5, #-1601]	; 0xfffff9bf
    2188:	e2400008 	sub	r0, r0, #8
    218c:	e8bd4038 	pop	{r3, r4, r5, lr}
    2190:	eafffffe 	b	0 <pthread_mutex_unlock>
			2190: R_ARM_JUMP24	pthread_mutex_unlock
    2194:	0000006c 	.word	0x0000006c
			2194: R_ARM_REL32	.bss
    2198:	00002030 	.word	0x00002030
			2198: R_ARM_REL32	.bss
    219c:	00002014 	.word	0x00002014
			219c: R_ARM_REL32	.bss

000021a0 <_Check_WAN_Addr>:
    21a0:	e59f237c 	ldr	r2, [pc, #892]	; 2524 <_Check_WAN_Addr+0x384>
    21a4:	e5903004 	ldr	r3, [r0, #4]
    21a8:	e08f2002 	add	r2, pc, r2
    21ac:	e5121758 	ldr	r1, [r2, #-1880]	; 0xfffff8a8
    21b0:	e92d4070 	push	{r4, r5, r6, lr}
    21b4:	e1510003 	cmp	r1, r3
    21b8:	e1a06000 	mov	r6, r0
    21bc:	e5120764 	ldr	r0, [r2, #-1892]	; 0xfffff89c
    21c0:	0a000053 	beq	2314 <_Check_WAN_Addr+0x174>
    21c4:	e3510000 	cmp	r1, #0
    21c8:	0a00002c 	beq	2280 <_Check_WAN_Addr+0xe0>
    21cc:	e5122748 	ldr	r2, [r2, #-1864]	; 0xfffff8b8
    21d0:	e1520003 	cmp	r2, r3
    21d4:	0a000096 	beq	2434 <_Check_WAN_Addr+0x294>
    21d8:	e3520000 	cmp	r2, #0
    21dc:	0a000027 	beq	2280 <_Check_WAN_Addr+0xe0>
    21e0:	e59f2340 	ldr	r2, [pc, #832]	; 2528 <_Check_WAN_Addr+0x388>
    21e4:	e08f2002 	add	r2, pc, r2
    21e8:	e5122738 	ldr	r2, [r2, #-1848]	; 0xfffff8c8
    21ec:	e1520003 	cmp	r2, r3
    21f0:	0a000093 	beq	2444 <_Check_WAN_Addr+0x2a4>
    21f4:	e3520000 	cmp	r2, #0
    21f8:	0a000020 	beq	2280 <_Check_WAN_Addr+0xe0>
    21fc:	e59f2328 	ldr	r2, [pc, #808]	; 252c <_Check_WAN_Addr+0x38c>
    2200:	e08f2002 	add	r2, pc, r2
    2204:	e5122728 	ldr	r2, [r2, #-1832]	; 0xfffff8d8
    2208:	e1520003 	cmp	r2, r3
    220c:	0a000090 	beq	2454 <_Check_WAN_Addr+0x2b4>
    2210:	e3520000 	cmp	r2, #0
    2214:	0a000019 	beq	2280 <_Check_WAN_Addr+0xe0>
    2218:	e59f2310 	ldr	r2, [pc, #784]	; 2530 <_Check_WAN_Addr+0x390>
    221c:	e08f2002 	add	r2, pc, r2
    2220:	e5122718 	ldr	r2, [r2, #-1816]	; 0xfffff8e8
    2224:	e1520003 	cmp	r2, r3
    2228:	0a00008d 	beq	2464 <_Check_WAN_Addr+0x2c4>
    222c:	e3520000 	cmp	r2, #0
    2230:	0a000012 	beq	2280 <_Check_WAN_Addr+0xe0>
    2234:	e59f22f8 	ldr	r2, [pc, #760]	; 2534 <_Check_WAN_Addr+0x394>
    2238:	e08f2002 	add	r2, pc, r2
    223c:	e5122708 	ldr	r2, [r2, #-1800]	; 0xfffff8f8
    2240:	e1520003 	cmp	r2, r3
    2244:	0a00008a 	beq	2474 <_Check_WAN_Addr+0x2d4>
    2248:	e3520000 	cmp	r2, #0
    224c:	0a00000b 	beq	2280 <_Check_WAN_Addr+0xe0>
    2250:	e59f22e0 	ldr	r2, [pc, #736]	; 2538 <_Check_WAN_Addr+0x398>
    2254:	e08f2002 	add	r2, pc, r2
    2258:	e51226f8 	ldr	r2, [r2, #-1784]	; 0xfffff908
    225c:	e1520003 	cmp	r2, r3
    2260:	0a000087 	beq	2484 <_Check_WAN_Addr+0x2e4>
    2264:	e3520000 	cmp	r2, #0
    2268:	0a000004 	beq	2280 <_Check_WAN_Addr+0xe0>
    226c:	e59f22c8 	ldr	r2, [pc, #712]	; 253c <_Check_WAN_Addr+0x39c>
    2270:	e08f2002 	add	r2, pc, r2
    2274:	e51226e8 	ldr	r2, [r2, #-1768]	; 0xfffff918
    2278:	e1520003 	cmp	r2, r3
    227c:	0a000084 	beq	2494 <_Check_WAN_Addr+0x2f4>
    2280:	e59fc2b8 	ldr	ip, [pc, #696]	; 2540 <_Check_WAN_Addr+0x3a0>
    2284:	e08fc00c 	add	ip, pc, ip
    2288:	e24c5e6f 	sub	r5, ip, #1776	; 0x6f0
    228c:	e245500c 	sub	r5, r5, #12
    2290:	e895000f 	ldm	r5, {r0, r1, r2, r3}
    2294:	e24c4c07 	sub	r4, ip, #1792	; 0x700
    2298:	e24cee6e 	sub	lr, ip, #1760	; 0x6e0
    229c:	e244400c 	sub	r4, r4, #12
    22a0:	e80e000f 	stmda	lr, {r0, r1, r2, r3}
    22a4:	e894000f 	ldm	r4, {r0, r1, r2, r3}
    22a8:	e24cee71 	sub	lr, ip, #1808	; 0x710
    22ac:	e24ee00c 	sub	lr, lr, #12
    22b0:	e885000f 	stm	r5, {r0, r1, r2, r3}
    22b4:	e89e000f 	ldm	lr, {r0, r1, r2, r3}
    22b8:	e24c5e72 	sub	r5, ip, #1824	; 0x720
    22bc:	e245500c 	sub	r5, r5, #12
    22c0:	e884000f 	stm	r4, {r0, r1, r2, r3}
    22c4:	e895000f 	ldm	r5, {r0, r1, r2, r3}
    22c8:	e24c4e73 	sub	r4, ip, #1840	; 0x730
    22cc:	e244400c 	sub	r4, r4, #12
    22d0:	e88e000f 	stm	lr, {r0, r1, r2, r3}
    22d4:	e894000f 	ldm	r4, {r0, r1, r2, r3}
    22d8:	e24ced1d 	sub	lr, ip, #1856	; 0x740
    22dc:	e24ee00c 	sub	lr, lr, #12
    22e0:	e885000f 	stm	r5, {r0, r1, r2, r3}
    22e4:	e89e000f 	ldm	lr, {r0, r1, r2, r3}
    22e8:	e24cce75 	sub	ip, ip, #1872	; 0x750
    22ec:	e24cc00c 	sub	ip, ip, #12
    22f0:	e884000f 	stm	r4, {r0, r1, r2, r3}
    22f4:	e89c000f 	ldm	ip, {r0, r1, r2, r3}
    22f8:	e88e000f 	stm	lr, {r0, r1, r2, r3}
    22fc:	e1a0000c 	mov	r0, ip
    2300:	e1a01006 	mov	r1, r6
    2304:	e3a02010 	mov	r2, #16
    2308:	ebfffffe 	bl	0 <memcpy>
			2308: R_ARM_CALL	memcpy
    230c:	e3a00001 	mov	r0, #1
    2310:	e8bd8070 	pop	{r4, r5, r6, pc}
    2314:	e3500003 	cmp	r0, #3
    2318:	0a000061 	beq	24a4 <_Check_WAN_Addr+0x304>
    231c:	e2421e75 	sub	r1, r2, #1872	; 0x750
    2320:	e151c0ba 	ldrh	ip, [r1, #-10]
    2324:	e1d610b2 	ldrh	r1, [r6, #2]
    2328:	e151000c 	cmp	r1, ip
    232c:	0a00003e 	beq	242c <_Check_WAN_Addr+0x28c>
    2330:	e5122748 	ldr	r2, [r2, #-1864]	; 0xfffff8b8
    2334:	e1520003 	cmp	r2, r3
    2338:	1affffa6 	bne	21d8 <_Check_WAN_Addr+0x38>
    233c:	e59f2200 	ldr	r2, [pc, #512]	; 2544 <_Check_WAN_Addr+0x3a4>
    2340:	e08f2002 	add	r2, pc, r2
    2344:	e242ce75 	sub	ip, r2, #1872	; 0x750
    2348:	e1dcc0b6 	ldrh	ip, [ip, #6]
    234c:	e151000c 	cmp	r1, ip
    2350:	0a000035 	beq	242c <_Check_WAN_Addr+0x28c>
    2354:	e5122738 	ldr	r2, [r2, #-1848]	; 0xfffff8c8
    2358:	e1520003 	cmp	r2, r3
    235c:	1affffa4 	bne	21f4 <_Check_WAN_Addr+0x54>
    2360:	e59f21e0 	ldr	r2, [pc, #480]	; 2548 <_Check_WAN_Addr+0x3a8>
    2364:	e08f2002 	add	r2, pc, r2
    2368:	e242ce75 	sub	ip, r2, #1872	; 0x750
    236c:	e1dcc1b6 	ldrh	ip, [ip, #22]
    2370:	e151000c 	cmp	r1, ip
    2374:	0a00002c 	beq	242c <_Check_WAN_Addr+0x28c>
    2378:	e5122728 	ldr	r2, [r2, #-1832]	; 0xfffff8d8
    237c:	e1520003 	cmp	r2, r3
    2380:	1affffa2 	bne	2210 <_Check_WAN_Addr+0x70>
    2384:	e59f21c0 	ldr	r2, [pc, #448]	; 254c <_Check_WAN_Addr+0x3ac>
    2388:	e08f2002 	add	r2, pc, r2
    238c:	e242ce75 	sub	ip, r2, #1872	; 0x750
    2390:	e1dcc2b6 	ldrh	ip, [ip, #38]	; 0x26
    2394:	e151000c 	cmp	r1, ip
    2398:	0a000023 	beq	242c <_Check_WAN_Addr+0x28c>
    239c:	e5122718 	ldr	r2, [r2, #-1816]	; 0xfffff8e8
    23a0:	e1520003 	cmp	r2, r3
    23a4:	1affffa0 	bne	222c <_Check_WAN_Addr+0x8c>
    23a8:	e59f21a0 	ldr	r2, [pc, #416]	; 2550 <_Check_WAN_Addr+0x3b0>
    23ac:	e08f2002 	add	r2, pc, r2
    23b0:	e242ce75 	sub	ip, r2, #1872	; 0x750
    23b4:	e1dcc3b6 	ldrh	ip, [ip, #54]	; 0x36
    23b8:	e151000c 	cmp	r1, ip
    23bc:	0a00001a 	beq	242c <_Check_WAN_Addr+0x28c>
    23c0:	e5122708 	ldr	r2, [r2, #-1800]	; 0xfffff8f8
    23c4:	e1520003 	cmp	r2, r3
    23c8:	1affff9e 	bne	2248 <_Check_WAN_Addr+0xa8>
    23cc:	e59f2180 	ldr	r2, [pc, #384]	; 2554 <_Check_WAN_Addr+0x3b4>
    23d0:	e08f2002 	add	r2, pc, r2
    23d4:	e242ce75 	sub	ip, r2, #1872	; 0x750
    23d8:	e1dcc4b6 	ldrh	ip, [ip, #70]	; 0x46
    23dc:	e151000c 	cmp	r1, ip
    23e0:	0a000011 	beq	242c <_Check_WAN_Addr+0x28c>
    23e4:	e51226f8 	ldr	r2, [r2, #-1784]	; 0xfffff908
    23e8:	e1520003 	cmp	r2, r3
    23ec:	1affff9c 	bne	2264 <_Check_WAN_Addr+0xc4>
    23f0:	e59f2160 	ldr	r2, [pc, #352]	; 2558 <_Check_WAN_Addr+0x3b8>
    23f4:	e08f2002 	add	r2, pc, r2
    23f8:	e2420e75 	sub	r0, r2, #1872	; 0x750
    23fc:	e1d005b6 	ldrh	r0, [r0, #86]	; 0x56
    2400:	e1510000 	cmp	r1, r0
    2404:	0a000008 	beq	242c <_Check_WAN_Addr+0x28c>
    2408:	e51226e8 	ldr	r2, [r2, #-1768]	; 0xfffff918
    240c:	e1520003 	cmp	r2, r3
    2410:	1affff9a 	bne	2280 <_Check_WAN_Addr+0xe0>
    2414:	e59f3140 	ldr	r3, [pc, #320]	; 255c <_Check_WAN_Addr+0x3bc>
    2418:	e08f3003 	add	r3, pc, r3
    241c:	e2433e75 	sub	r3, r3, #1872	; 0x750
    2420:	e1d336b6 	ldrh	r3, [r3, #102]	; 0x66
    2424:	e1510003 	cmp	r1, r3
    2428:	1affff94 	bne	2280 <_Check_WAN_Addr+0xe0>
    242c:	e3a00000 	mov	r0, #0
    2430:	e8bd8070 	pop	{r4, r5, r6, pc}
    2434:	e3500003 	cmp	r0, #3
    2438:	0a00002b 	beq	24ec <_Check_WAN_Addr+0x34c>
    243c:	e1d610b2 	ldrh	r1, [r6, #2]
    2440:	eaffffbd 	b	233c <_Check_WAN_Addr+0x19c>
    2444:	e3500003 	cmp	r0, #3
    2448:	0a000029 	beq	24f4 <_Check_WAN_Addr+0x354>
    244c:	e1d610b2 	ldrh	r1, [r6, #2]
    2450:	eaffffc2 	b	2360 <_Check_WAN_Addr+0x1c0>
    2454:	e3500003 	cmp	r0, #3
    2458:	0a000027 	beq	24fc <_Check_WAN_Addr+0x35c>
    245c:	e1d610b2 	ldrh	r1, [r6, #2]
    2460:	eaffffc7 	b	2384 <_Check_WAN_Addr+0x1e4>
    2464:	e3500003 	cmp	r0, #3
    2468:	0a000025 	beq	2504 <_Check_WAN_Addr+0x364>
    246c:	e1d610b2 	ldrh	r1, [r6, #2]
    2470:	eaffffcc 	b	23a8 <_Check_WAN_Addr+0x208>
    2474:	e3500003 	cmp	r0, #3
    2478:	0a000023 	beq	250c <_Check_WAN_Addr+0x36c>
    247c:	e1d610b2 	ldrh	r1, [r6, #2]
    2480:	eaffffd1 	b	23cc <_Check_WAN_Addr+0x22c>
    2484:	e3500003 	cmp	r0, #3
    2488:	0a000021 	beq	2514 <_Check_WAN_Addr+0x374>
    248c:	e1d610b2 	ldrh	r1, [r6, #2]
    2490:	eaffffd6 	b	23f0 <_Check_WAN_Addr+0x250>
    2494:	e3500003 	cmp	r0, #3
    2498:	0a00001f 	beq	251c <_Check_WAN_Addr+0x37c>
    249c:	e1d610b2 	ldrh	r1, [r6, #2]
    24a0:	eaffffdb 	b	2414 <_Check_WAN_Addr+0x274>
    24a4:	e3a0c000 	mov	ip, #0
    24a8:	e59f10b0 	ldr	r1, [pc, #176]	; 2560 <_Check_WAN_Addr+0x3c0>
    24ac:	e1d6e0b2 	ldrh	lr, [r6, #2]
    24b0:	e08f1001 	add	r1, pc, r1
    24b4:	e2413e75 	sub	r3, r1, #1872	; 0x750
    24b8:	e243200c 	sub	r2, r3, #12
    24bc:	e082020c 	add	r0, r2, ip, lsl #4
    24c0:	e1d030b2 	ldrh	r3, [r0, #2]
    24c4:	e15e0003 	cmp	lr, r3
    24c8:	0affffd7 	beq	242c <_Check_WAN_Addr+0x28c>
    24cc:	e081310c 	add	r3, r1, ip, lsl #2
    24d0:	e513c6dc 	ldr	ip, [r3, #-1756]	; 0xfffff924
    24d4:	e1a01006 	mov	r1, r6
    24d8:	e38cc001 	orr	ip, ip, #1
    24dc:	e3a02010 	mov	r2, #16
    24e0:	e503c6dc 	str	ip, [r3, #-1756]	; 0xfffff924
    24e4:	ebfffffe 	bl	0 <memcpy>
			24e4: R_ARM_CALL	memcpy
    24e8:	eaffffcf 	b	242c <_Check_WAN_Addr+0x28c>
    24ec:	e3a0c001 	mov	ip, #1
    24f0:	eaffffec 	b	24a8 <_Check_WAN_Addr+0x308>
    24f4:	e3a0c002 	mov	ip, #2
    24f8:	eaffffea 	b	24a8 <_Check_WAN_Addr+0x308>
    24fc:	e1a0c000 	mov	ip, r0
    2500:	eaffffe8 	b	24a8 <_Check_WAN_Addr+0x308>
    2504:	e3a0c004 	mov	ip, #4
    2508:	eaffffe6 	b	24a8 <_Check_WAN_Addr+0x308>
    250c:	e3a0c005 	mov	ip, #5
    2510:	eaffffe4 	b	24a8 <_Check_WAN_Addr+0x308>
    2514:	e3a0c006 	mov	ip, #6
    2518:	eaffffe2 	b	24a8 <_Check_WAN_Addr+0x308>
    251c:	e3a0c007 	mov	ip, #7
    2520:	eaffffe0 	b	24a8 <_Check_WAN_Addr+0x308>
    2524:	0000236c 	.word	0x0000236c
			2524: R_ARM_REL32	.bss
    2528:	00002334 	.word	0x00002334
			2528: R_ARM_REL32	.bss
    252c:	0000231c 	.word	0x0000231c
			252c: R_ARM_REL32	.bss
    2530:	00002304 	.word	0x00002304
			2530: R_ARM_REL32	.bss
    2534:	000022ec 	.word	0x000022ec
			2534: R_ARM_REL32	.bss
    2538:	000022d4 	.word	0x000022d4
			2538: R_ARM_REL32	.bss
    253c:	000022bc 	.word	0x000022bc
			253c: R_ARM_REL32	.bss
    2540:	000022ac 	.word	0x000022ac
			2540: R_ARM_REL32	.bss
    2544:	000021f4 	.word	0x000021f4
			2544: R_ARM_REL32	.bss
    2548:	000021d4 	.word	0x000021d4
			2548: R_ARM_REL32	.bss
    254c:	000021b4 	.word	0x000021b4
			254c: R_ARM_REL32	.bss
    2550:	00002194 	.word	0x00002194
			2550: R_ARM_REL32	.bss
    2554:	00002174 	.word	0x00002174
			2554: R_ARM_REL32	.bss
    2558:	00002154 	.word	0x00002154
			2558: R_ARM_REL32	.bss
    255c:	00002134 	.word	0x00002134
			255c: R_ARM_REL32	.bss
    2560:	000020a0 	.word	0x000020a0
			2560: R_ARM_REL32	.bss

00002564 <_Check_Nat_Type>:
    2564:	e59f20dc 	ldr	r2, [pc, #220]	; 2648 <_Check_Nat_Type+0xe4>
    2568:	e52de004 	push	{lr}		; (str lr, [sp, #-4]!)
    256c:	e08f2002 	add	r2, pc, r2
    2570:	e59f30d4 	ldr	r3, [pc, #212]	; 264c <_Check_Nat_Type+0xe8>
    2574:	e552e660 	ldrb	lr, [r2, #-1632]	; 0xfffff9a0
    2578:	e3a0c000 	mov	ip, #0
    257c:	e08f3003 	add	r3, pc, r3
    2580:	e15e000c 	cmp	lr, ip
    2584:	e5c3c006 	strb	ip, [r3, #6]
    2588:	1a000018 	bne	25f0 <_Check_Nat_Type+0x8c>
    258c:	e3510000 	cmp	r1, #0
    2590:	1a000012 	bne	25e0 <_Check_Nat_Type+0x7c>
    2594:	e3500000 	cmp	r0, #0
    2598:	049df004 	popeq	{pc}		; (ldreq pc, [sp], #4)
    259c:	e2423e76 	sub	r3, r2, #1888	; 0x760
    25a0:	e1d330b0 	ldrh	r3, [r3]
    25a4:	e1d010b2 	ldrh	r1, [r0, #2]
    25a8:	e3530000 	cmp	r3, #0
    25ac:	0a000005 	beq	25c8 <_Check_Nat_Type+0x64>
    25b0:	e1530001 	cmp	r3, r1
    25b4:	0a000011 	beq	2600 <_Check_Nat_Type+0x9c>
    25b8:	e59f3090 	ldr	r3, [pc, #144]	; 2650 <_Check_Nat_Type+0xec>
    25bc:	e3a02003 	mov	r2, #3
    25c0:	e08f3003 	add	r3, pc, r3
    25c4:	e5032764 	str	r2, [r3, #-1892]	; 0xfffff89c
    25c8:	e59f3084 	ldr	r3, [pc, #132]	; 2654 <_Check_Nat_Type+0xf0>
    25cc:	e49de004 	pop	{lr}		; (ldr lr, [sp], #4)
    25d0:	e08f3003 	add	r3, pc, r3
    25d4:	e2433e76 	sub	r3, r3, #1888	; 0x760
    25d8:	e1c310b0 	strh	r1, [r3]
    25dc:	eafffeef 	b	21a0 <_Check_WAN_Addr>
    25e0:	e3a03001 	mov	r3, #1
    25e4:	e5023764 	str	r3, [r2, #-1892]	; 0xfffff89c
    25e8:	e5823100 	str	r3, [r2, #256]	; 0x100
    25ec:	e49df004 	pop	{pc}		; (ldr pc, [sp], #4)
    25f0:	e3a0300a 	mov	r3, #10
    25f4:	e5023764 	str	r3, [r2, #-1892]	; 0xfffff89c
    25f8:	e5823100 	str	r3, [r2, #256]	; 0x100
    25fc:	e49df004 	pop	{pc}		; (ldr pc, [sp], #4)
    2600:	e590c004 	ldr	ip, [r0, #4]
    2604:	e5123758 	ldr	r3, [r2, #-1880]	; 0xfffff8a8
    2608:	e15c0003 	cmp	ip, r3
    260c:	13a03001 	movne	r3, #1
    2610:	150236bc 	strne	r3, [r2, #-1724]	; 0xfffff944
    2614:	1affffe7 	bne	25b8 <_Check_Nat_Type+0x54>
    2618:	e5123764 	ldr	r3, [r2, #-1892]	; 0xfffff89c
    261c:	e3530003 	cmp	r3, #3
    2620:	0affffe8 	beq	25c8 <_Check_Nat_Type+0x64>
    2624:	e592c100 	ldr	ip, [r2, #256]	; 0x100
    2628:	e35c0001 	cmp	ip, #1
    262c:	0a000002 	beq	263c <_Check_Nat_Type+0xd8>
    2630:	e3a03002 	mov	r3, #2
    2634:	e5023764 	str	r3, [r2, #-1892]	; 0xfffff89c
    2638:	eaffffe2 	b	25c8 <_Check_Nat_Type+0x64>
    263c:	e3530000 	cmp	r3, #0
    2640:	0afffffa 	beq	2630 <_Check_Nat_Type+0xcc>
    2644:	eaffffdf 	b	25c8 <_Check_Nat_Type+0x64>
    2648:	000020cc 	.word	0x000020cc
			2648: R_ARM_REL32	.bss
    264c:	000000c8 	.word	0x000000c8
			264c: R_ARM_REL32	.data
    2650:	00002080 	.word	0x00002080
			2650: R_ARM_REL32	.bss
    2654:	00002074 	.word	0x00002074
			2654: R_ARM_REL32	.bss

00002658 <IOTC_OpenUDP_P2PSocket.isra.22>:
    2658:	e92d4070 	push	{r4, r5, r6, lr}
    265c:	e59f4118 	ldr	r4, [pc, #280]	; 277c <IOTC_OpenUDP_P2PSocket.isra.22+0x124>
    2660:	e59f3118 	ldr	r3, [pc, #280]	; 2780 <IOTC_OpenUDP_P2PSocket.isra.22+0x128>
    2664:	e08f4004 	add	r4, pc, r4
    2668:	e2445d19 	sub	r5, r4, #1600	; 0x640
    266c:	e15520b4 	ldrh	r2, [r5, #-4]
    2670:	e08f3003 	add	r3, pc, r3
    2674:	e5930000 	ldr	r0, [r3]
    2678:	e1a03422 	lsr	r3, r2, #8
    267c:	e24dd018 	sub	sp, sp, #24
    2680:	e1833402 	orr	r3, r3, r2, lsl #8
    2684:	e3500000 	cmp	r0, #0
    2688:	e59f20f4 	ldr	r2, [pc, #244]	; 2784 <IOTC_OpenUDP_P2PSocket.isra.22+0x12c>
    268c:	e1cd31b2 	strh	r3, [sp, #18]
    2690:	e58d2014 	str	r2, [sp, #20]
    2694:	0a000002 	beq	26a4 <IOTC_OpenUDP_P2PSocket.isra.22+0x4c>
    2698:	e514665c 	ldr	r6, [r4, #-1628]	; 0xfffff9a4
    269c:	e3560000 	cmp	r6, #0
    26a0:	0a000002 	beq	26b0 <IOTC_OpenUDP_P2PSocket.isra.22+0x58>
    26a4:	e3a00000 	mov	r0, #0
    26a8:	e28dd018 	add	sp, sp, #24
    26ac:	e8bd8070 	pop	{r4, r5, r6, pc}
    26b0:	e5902000 	ldr	r2, [r0]
    26b4:	e2443e65 	sub	r3, r4, #1616	; 0x650
    26b8:	e243300c 	sub	r3, r3, #12
    26bc:	e3a01001 	mov	r1, #1
    26c0:	e58d3000 	str	r3, [sp]
    26c4:	e1a03006 	mov	r3, r6
    26c8:	e592c008 	ldr	ip, [r2, #8]
    26cc:	e1a02001 	mov	r2, r1
    26d0:	e12fff3c 	blx	ip
    26d4:	e3500000 	cmp	r0, #0
    26d8:	ba000025 	blt	2774 <IOTC_OpenUDP_P2PSocket.isra.22+0x11c>
    26dc:	e514065c 	ldr	r0, [r4, #-1628]	; 0xfffff9a4
    26e0:	e59f10a0 	ldr	r1, [pc, #160]	; 2788 <IOTC_OpenUDP_P2PSocket.isra.22+0x130>
    26e4:	e5903000 	ldr	r3, [r0]
    26e8:	e08f1001 	add	r1, pc, r1
    26ec:	e5933014 	ldr	r3, [r3, #20]
    26f0:	e1a02006 	mov	r2, r6
    26f4:	e12fff33 	blx	r3
    26f8:	e3500000 	cmp	r0, #0
    26fc:	ba00001c 	blt	2774 <IOTC_OpenUDP_P2PSocket.isra.22+0x11c>
    2700:	e514065c 	ldr	r0, [r4, #-1628]	; 0xfffff9a4
    2704:	e59f2080 	ldr	r2, [pc, #128]	; 278c <IOTC_OpenUDP_P2PSocket.isra.22+0x134>
    2708:	e59f3080 	ldr	r3, [pc, #128]	; 2790 <IOTC_OpenUDP_P2PSocket.isra.22+0x138>
    270c:	e590c000 	ldr	ip, [r0]
    2710:	e08f2002 	add	r2, pc, r2
    2714:	e08f3003 	add	r3, pc, r3
    2718:	e58d2000 	str	r2, [sp]
    271c:	e58d3008 	str	r3, [sp, #8]
    2720:	e58d6004 	str	r6, [sp, #4]
    2724:	e58d600c 	str	r6, [sp, #12]
    2728:	e1a01006 	mov	r1, r6
    272c:	e59cc008 	ldr	ip, [ip, #8]
    2730:	e28d2012 	add	r2, sp, #18
    2734:	e1a03006 	mov	r3, r6
    2738:	e12fff3c 	blx	ip
    273c:	e3500000 	cmp	r0, #0
    2740:	ba00000b 	blt	2774 <IOTC_OpenUDP_P2PSocket.isra.22+0x11c>
    2744:	e514065c 	ldr	r0, [r4, #-1628]	; 0xfffff9a4
    2748:	e1dd21b2 	ldrh	r2, [sp, #18]
    274c:	e590c000 	ldr	ip, [r0]
    2750:	e1a03422 	lsr	r3, r2, #8
    2754:	e1833402 	orr	r3, r3, r2, lsl #8
    2758:	e1a01006 	mov	r1, r6
    275c:	e59cc028 	ldr	ip, [ip, #40]	; 0x28
    2760:	e28d2014 	add	r2, sp, #20
    2764:	e14530b4 	strh	r3, [r5, #-4]
    2768:	e12fff3c 	blx	ip
    276c:	e3500000 	cmp	r0, #0
    2770:	aaffffcb 	bge	26a4 <IOTC_OpenUDP_P2PSocket.isra.22+0x4c>
    2774:	e3e00005 	mvn	r0, #5
    2778:	eaffffca 	b	26a8 <IOTC_OpenUDP_P2PSocket.isra.22+0x50>
    277c:	00002108 	.word	0x00002108
			277c: R_ARM_REL32	.bss
    2780:	00000108 	.word	0x00000108
			2780: R_ARM_REL32	.bss
    2784:	00000588 	.word	0x00000588
    2788:	0001b8d0 	.word	0x0001b8d0
    278c:	ffffd984 	.word	0xffffd984
    2790:	ffffd984 	.word	0xffffd984

00002794 <IOTC_Handler_MSG_DEVICE_LOGIN_R.isra.23>:
    2794:	e59f20f8 	ldr	r2, [pc, #248]	; 2894 <IOTC_Handler_MSG_DEVICE_LOGIN_R.isra.23+0x100>
    2798:	e52de004 	push	{lr}		; (str lr, [sp, #-4]!)
    279c:	e08f2002 	add	r2, pc, r2
    27a0:	e2422e6b 	sub	r2, r2, #1712	; 0x6b0
    27a4:	e24dd034 	sub	sp, sp, #52	; 0x34
    27a8:	e3a01000 	mov	r1, #0
    27ac:	e2422008 	sub	r2, r2, #8
    27b0:	e280300f 	add	r3, r0, #15
    27b4:	e280e023 	add	lr, r0, #35	; 0x23
    27b8:	e58d1000 	str	r1, [sp]
    27bc:	e58d1004 	str	r1, [sp, #4]
    27c0:	e58d1008 	str	r1, [sp, #8]
    27c4:	e58d100c 	str	r1, [sp, #12]
    27c8:	e58d1010 	str	r1, [sp, #16]
    27cc:	e58d1014 	str	r1, [sp, #20]
    27d0:	e58d1018 	str	r1, [sp, #24]
    27d4:	e58d101c 	str	r1, [sp, #28]
    27d8:	e58d1020 	str	r1, [sp, #32]
    27dc:	e58d1024 	str	r1, [sp, #36]	; 0x24
    27e0:	e58d1028 	str	r1, [sp, #40]	; 0x28
    27e4:	e1cd12bc 	strh	r1, [sp, #44]	; 0x2c
    27e8:	e4d2c001 	ldrb	ip, [r2], #1
    27ec:	e5f31001 	ldrb	r1, [r3, #1]!
    27f0:	e151000c 	cmp	r1, ip
    27f4:	1a000024 	bne	288c <IOTC_Handler_MSG_DEVICE_LOGIN_R.isra.23+0xf8>
    27f8:	e3510000 	cmp	r1, #0
    27fc:	0a000001 	beq	2808 <IOTC_Handler_MSG_DEVICE_LOGIN_R.isra.23+0x74>
    2800:	e153000e 	cmp	r3, lr
    2804:	1afffff7 	bne	27e8 <IOTC_Handler_MSG_DEVICE_LOGIN_R.isra.23+0x54>
    2808:	e1a0200d 	mov	r2, sp
    280c:	e2800024 	add	r0, r0, #36	; 0x24
    2810:	e3a0102e 	mov	r1, #46	; 0x2e
    2814:	ebfffffe 	bl	0 <iotc_sockaddr_to_ip_string>
			2814: R_ARM_CALL	iotc_sockaddr_to_ip_string
    2818:	e59f2078 	ldr	r2, [pc, #120]	; 2898 <IOTC_Handler_MSG_DEVICE_LOGIN_R.isra.23+0x104>
    281c:	e08f2002 	add	r2, pc, r2
    2820:	e5923104 	ldr	r3, [r2, #260]	; 0x104
    2824:	e3130004 	tst	r3, #4
    2828:	1a000005 	bne	2844 <IOTC_Handler_MSG_DEVICE_LOGIN_R.isra.23+0xb0>
    282c:	e5921108 	ldr	r1, [r2, #264]	; 0x108
    2830:	e3830004 	orr	r0, r3, #4
    2834:	e3510000 	cmp	r1, #0
    2838:	e5820104 	str	r0, [r2, #260]	; 0x104
    283c:	0a000000 	beq	2844 <IOTC_Handler_MSG_DEVICE_LOGIN_R.isra.23+0xb0>
    2840:	e12fff31 	blx	r1
    2844:	e59f3050 	ldr	r3, [pc, #80]	; 289c <IOTC_Handler_MSG_DEVICE_LOGIN_R.isra.23+0x108>
    2848:	e08f3003 	add	r3, pc, r3
    284c:	e59327ec 	ldr	r2, [r3, #2028]	; 0x7ec
    2850:	e3520008 	cmp	r2, #8
    2854:	0a000008 	beq	287c <IOTC_Handler_MSG_DEVICE_LOGIN_R.isra.23+0xe8>
    2858:	e593c7f4 	ldr	ip, [r3, #2036]	; 0x7f4
    285c:	e3a00008 	mov	r0, #8
    2860:	e3a01000 	mov	r1, #0
    2864:	e35c0000 	cmp	ip, #0
    2868:	e58307ec 	str	r0, [r3, #2028]	; 0x7ec
    286c:	e58317f0 	str	r1, [r3, #2032]	; 0x7f0
    2870:	0a000001 	beq	287c <IOTC_Handler_MSG_DEVICE_LOGIN_R.isra.23+0xe8>
    2874:	e59327f8 	ldr	r2, [r3, #2040]	; 0x7f8
    2878:	e12fff3c 	blx	ip
    287c:	e59f301c 	ldr	r3, [pc, #28]	; 28a0 <IOTC_Handler_MSG_DEVICE_LOGIN_R.isra.23+0x10c>
    2880:	e3a02000 	mov	r2, #0
    2884:	e08f3003 	add	r3, pc, r3
    2888:	e5032edc 	str	r2, [r3, #-3804]	; 0xfffff124
    288c:	e28dd034 	add	sp, sp, #52	; 0x34
    2890:	e49df004 	pop	{pc}		; (ldr pc, [sp], #4)
    2894:	000020e8 	.word	0x000020e8
			2894: R_ARM_REL32	.bss
    2898:	0000206c 	.word	0x0000206c
			2898: R_ARM_REL32	.bss
    289c:	00002044 	.word	0x00002044
			289c: R_ARM_REL32	.bss
    28a0:	00004004 	.word	0x00004004
			28a0: R_ARM_REL32	.bss

000028a4 <EndOneTCPConnServerTask.part.25>:
    28a4:	e59f0024 	ldr	r0, [pc, #36]	; 28d0 <EndOneTCPConnServerTask.part.25+0x2c>
    28a8:	e59f3024 	ldr	r3, [pc, #36]	; 28d4 <EndOneTCPConnServerTask.part.25+0x30>
    28ac:	e52de004 	push	{lr}		; (str lr, [sp, #-4]!)
    28b0:	e3a02000 	mov	r2, #0
    28b4:	e24dd00c 	sub	sp, sp, #12
    28b8:	e1a01000 	mov	r1, r0
    28bc:	e58d2000 	str	r2, [sp]
    28c0:	e08f3003 	add	r3, pc, r3
    28c4:	ebfffffe 	bl	0 <tutk_TaskMng_Create>
			28c4: R_ARM_CALL	tutk_TaskMng_Create
    28c8:	e28dd00c 	add	sp, sp, #12
    28cc:	e49df004 	pop	{pc}		; (ldr pc, [sp], #4)
    28d0:	000493e0 	.word	0x000493e0
    28d4:	00000ac0 	.word	0x00000ac0

000028d8 <EndOneTCPConnServerTask>:
    28d8:	e59f2034 	ldr	r2, [pc, #52]	; 2914 <EndOneTCPConnServerTask+0x3c>
    28dc:	e08f2002 	add	r2, pc, r2
    28e0:	e5123ed8 	ldr	r3, [r2, #-3800]	; 0xfffff128
    28e4:	e5121ed4 	ldr	r1, [r2, #-3796]	; 0xfffff12c
    28e8:	e2433001 	sub	r3, r3, #1
    28ec:	e3530000 	cmp	r3, #0
    28f0:	03510001 	cmpeq	r1, #1
    28f4:	e5023ed8 	str	r3, [r2, #-3800]	; 0xfffff128
    28f8:	112fff1e 	bxne	lr
    28fc:	e59f3014 	ldr	r3, [pc, #20]	; 2918 <EndOneTCPConnServerTask+0x40>
    2900:	e08f3003 	add	r3, pc, r3
    2904:	e513367c 	ldr	r3, [r3, #-1660]	; 0xfffff984
    2908:	e3530000 	cmp	r3, #0
    290c:	112fff1e 	bxne	lr
    2910:	eaffffe3 	b	28a4 <EndOneTCPConnServerTask.part.25>
    2914:	00004020 	.word	0x00004020
			2914: R_ARM_REL32	.bss
    2918:	00002008 	.word	0x00002008
			2918: R_ARM_REL32	.bss

0000291c <isDeviceSleep>:
    291c:	e5903650 	ldr	r3, [r0, #1616]	; 0x650
    2920:	e92d4ff0 	push	{r4, r5, r6, r7, r8, r9, sl, fp, lr}
    2924:	e3530002 	cmp	r3, #2
    2928:	e24dd044 	sub	sp, sp, #68	; 0x44
    292c:	ca000081 	bgt	2b38 <isDeviceSleep+0x21c>
    2930:	e590264c 	ldr	r2, [r0, #1612]	; 0x64c
    2934:	e242c00f 	sub	ip, r2, #15
    2938:	e3520012 	cmp	r2, #18
    293c:	135c0001 	cmpne	ip, #1
    2940:	93a06001 	movls	r6, #1
    2944:	83a06000 	movhi	r6, #0
    2948:	9a00007a 	bls	2b38 <isDeviceSleep+0x21c>
    294c:	e5d0304c 	ldrb	r3, [r0, #76]	; 0x4c
    2950:	e3530000 	cmp	r3, #0
    2954:	1a000004 	bne	296c <isDeviceSleep+0x50>
    2958:	e59f32b4 	ldr	r3, [pc, #692]	; 2c14 <isDeviceSleep+0x2f8>
    295c:	e08f3003 	add	r3, pc, r3
    2960:	e5533ed0 	ldrb	r3, [r3, #-3792]	; 0xfffff130
    2964:	e3530001 	cmp	r3, #1
    2968:	0a000073 	beq	2b3c <isDeviceSleep+0x220>
    296c:	e1a04000 	mov	r4, r0
    2970:	e1a05001 	mov	r5, r1
    2974:	e28d0008 	add	r0, sp, #8
    2978:	e3a01000 	mov	r1, #0
    297c:	ebfffffe 	bl	0 <gettimeofday>
			297c: R_ARM_CALL	gettimeofday
    2980:	e594effc 	ldr	lr, [r4, #4092]	; 0xffc
    2984:	e2843a01 	add	r3, r4, #4096	; 0x1000
    2988:	e35e0000 	cmp	lr, #0
    298c:	e5933000 	ldr	r3, [r3]
    2990:	da000089 	ble	2bbc <isDeviceSleep+0x2a0>
    2994:	e59dc00c 	ldr	ip, [sp, #12]
    2998:	e59f1278 	ldr	r1, [pc, #632]	; 2c18 <isDeviceSleep+0x2fc>
    299c:	e063300c 	rsb	r3, r3, ip
    29a0:	e0c12193 	smull	r2, r1, r3, r1
    29a4:	e59d0008 	ldr	r0, [sp, #8]
    29a8:	e1a0cfc3 	asr	ip, r3, #31
    29ac:	e06c2341 	rsb	r2, ip, r1, asr #6
    29b0:	e06e3000 	rsb	r3, lr, r0
    29b4:	e3a01ffa 	mov	r1, #1000	; 0x3e8
    29b8:	e0212193 	mla	r1, r3, r1, r2
    29bc:	e1a03004 	mov	r3, r4
    29c0:	e2840b02 	add	r0, r4, #2048	; 0x800
    29c4:	e3a0c001 	mov	ip, #1
    29c8:	e5d32736 	ldrb	r2, [r3, #1846]	; 0x736
    29cc:	e2833040 	add	r3, r3, #64	; 0x40
    29d0:	e2422001 	sub	r2, r2, #1
    29d4:	e3520010 	cmp	r2, #16
    29d8:	93a0c000 	movls	ip, #0
    29dc:	e1530000 	cmp	r3, r0
    29e0:	1afffff8 	bne	29c8 <isDeviceSleep+0xac>
    29e4:	e35c0000 	cmp	ip, #0
    29e8:	0a000056 	beq	2b48 <isDeviceSleep+0x22c>
    29ec:	e2847c07 	add	r7, r4, #1792	; 0x700
    29f0:	e3a00000 	mov	r0, #0
    29f4:	e2877002 	add	r7, r7, #2
    29f8:	e284cc0f 	add	ip, r4, #3840	; 0xf00
    29fc:	e1a02007 	mov	r2, r7
    2a00:	e28cc002 	add	ip, ip, #2
    2a04:	e1a05000 	mov	r5, r0
    2a08:	e1a06000 	mov	r6, r0
    2a0c:	e1d230b0 	ldrh	r3, [r2]
    2a10:	e3530000 	cmp	r3, #0
    2a14:	0a000003 	beq	2a28 <isDeviceSleep+0x10c>
    2a18:	e1d233d5 	ldrsb	r3, [r2, #53]	; 0x35
    2a1c:	e3730040 	cmn	r3, #64	; 0x40
    2a20:	13a06001 	movne	r6, #1
    2a24:	03a00001 	moveq	r0, #1
    2a28:	e1d231b4 	ldrh	r3, [r2, #20]
    2a2c:	e3530000 	cmp	r3, #0
    2a30:	0a000003 	beq	2a44 <isDeviceSleep+0x128>
    2a34:	e1d233d5 	ldrsb	r3, [r2, #53]	; 0x35
    2a38:	e3730040 	cmn	r3, #64	; 0x40
    2a3c:	13a05001 	movne	r5, #1
    2a40:	03a00001 	moveq	r0, #1
    2a44:	e2822040 	add	r2, r2, #64	; 0x40
    2a48:	e152000c 	cmp	r2, ip
    2a4c:	1affffee 	bne	2a0c <isDeviceSleep+0xf0>
    2a50:	e2255001 	eor	r5, r5, #1
    2a54:	e20530ff 	and	r3, r5, #255	; 0xff
    2a58:	e1530006 	cmp	r3, r6
    2a5c:	93a06000 	movls	r6, #0
    2a60:	82006001 	andhi	r6, r0, #1
    2a64:	e3560000 	cmp	r6, #0
    2a68:	1a000033 	bne	2b3c <isDeviceSleep+0x220>
    2a6c:	e3510e7d 	cmp	r1, #2000	; 0x7d0
    2a70:	da000031 	ble	2b3c <isDeviceSleep+0x220>
    2a74:	e59fb1a0 	ldr	fp, [pc, #416]	; 2c1c <isDeviceSleep+0x300>
    2a78:	e1a05006 	mov	r5, r6
    2a7c:	e3e08000 	mvn	r8, #0
    2a80:	e28d9010 	add	r9, sp, #16
    2a84:	e1a0a006 	mov	sl, r6
    2a88:	e1d700b0 	ldrh	r0, [r7]
    2a8c:	e3a03000 	mov	r3, #0
    2a90:	e1500003 	cmp	r0, r3
    2a94:	e3a0102e 	mov	r1, #46	; 0x2e
    2a98:	e1a02009 	mov	r2, r9
    2a9c:	0a000011 	beq	2ae8 <isDeviceSleep+0x1cc>
    2aa0:	e597c036 	ldr	ip, [r7, #54]	; 0x36
    2aa4:	e15c000b 	cmp	ip, fp
    2aa8:	aa00000a 	bge	2ad8 <isDeviceSleep+0x1bc>
    2aac:	e1d703d5 	ldrsb	r0, [r7, #53]	; 0x35
    2ab0:	e29ce001 	adds	lr, ip, #1
    2ab4:	13a0e001 	movne	lr, #1
    2ab8:	e3700001 	cmn	r0, #1
    2abc:	13700040 	cmnne	r0, #64	; 0x40
    2ac0:	03a00001 	moveq	r0, #1
    2ac4:	13a00000 	movne	r0, #0
    2ac8:	e000000e 	and	r0, r0, lr
    2acc:	e1500003 	cmp	r0, r3
    2ad0:	11a08005 	movne	r8, r5
    2ad4:	11a0b00c 	movne	fp, ip
    2ad8:	e0840308 	add	r0, r4, r8, lsl #6
    2adc:	e58da000 	str	sl, [sp]
    2ae0:	e2800c07 	add	r0, r0, #1792	; 0x700
    2ae4:	ebfffffe 	bl	0 <iotc_netaddr_get_content>
			2ae4: R_ARM_CALL	iotc_netaddr_get_content
    2ae8:	e2855001 	add	r5, r5, #1
    2aec:	e3550020 	cmp	r5, #32
    2af0:	e2877040 	add	r7, r7, #64	; 0x40
    2af4:	1affffe3 	bne	2a88 <isDeviceSleep+0x16c>
    2af8:	e3780001 	cmn	r8, #1
    2afc:	0a00000e 	beq	2b3c <isDeviceSleep+0x220>
    2b00:	e1a08308 	lsl	r8, r8, #6
    2b04:	e0840008 	add	r0, r4, r8
    2b08:	e3a03000 	mov	r3, #0
    2b0c:	e2800c07 	add	r0, r0, #1792	; 0x700
    2b10:	e58d3000 	str	r3, [sp]
    2b14:	e3a0102e 	mov	r1, #46	; 0x2e
    2b18:	e28d2010 	add	r2, sp, #16
    2b1c:	e0844008 	add	r4, r4, r8
    2b20:	ebfffffe 	bl	0 <iotc_netaddr_get_content>
			2b20: R_ARM_CALL	iotc_netaddr_get_content
    2b24:	e5d46737 	ldrb	r6, [r4, #1847]	; 0x737
    2b28:	e24660c0 	sub	r6, r6, #192	; 0xc0
    2b2c:	e16f6f16 	clz	r6, r6
    2b30:	e1a062a6 	lsr	r6, r6, #5
    2b34:	ea000000 	b	2b3c <isDeviceSleep+0x220>
    2b38:	e3a06000 	mov	r6, #0
    2b3c:	e1a00006 	mov	r0, r6
    2b40:	e28dd044 	add	sp, sp, #68	; 0x44
    2b44:	e8bd8ff0 	pop	{r4, r5, r6, r7, r8, r9, sl, fp, pc}
    2b48:	e2843c07 	add	r3, r4, #1792	; 0x700
    2b4c:	e2840c0f 	add	r0, r4, #3840	; 0xf00
    2b50:	e1a0e00c 	mov	lr, ip
    2b54:	e1a0600c 	mov	r6, ip
    2b58:	e2832002 	add	r2, r3, #2
    2b5c:	e2800002 	add	r0, r0, #2
    2b60:	ea000009 	b	2b8c <isDeviceSleep+0x270>
    2b64:	e1d241b4 	ldrh	r4, [r2, #20]
    2b68:	e3540000 	cmp	r4, #0
    2b6c:	0a000003 	beq	2b80 <isDeviceSleep+0x264>
    2b70:	e1d233d5 	ldrsb	r3, [r2, #53]	; 0x35
    2b74:	e3730040 	cmn	r3, #64	; 0x40
    2b78:	13a0e001 	movne	lr, #1
    2b7c:	0a000012 	beq	2bcc <isDeviceSleep+0x2b0>
    2b80:	e2822040 	add	r2, r2, #64	; 0x40
    2b84:	e1520000 	cmp	r2, r0
    2b88:	0a000015 	beq	2be4 <isDeviceSleep+0x2c8>
    2b8c:	e1d230b0 	ldrh	r3, [r2]
    2b90:	e3530000 	cmp	r3, #0
    2b94:	0afffff2 	beq	2b64 <isDeviceSleep+0x248>
    2b98:	e1d233d5 	ldrsb	r3, [r2, #53]	; 0x35
    2b9c:	e3730040 	cmn	r3, #64	; 0x40
    2ba0:	13a06001 	movne	r6, #1
    2ba4:	1affffee 	bne	2b64 <isDeviceSleep+0x248>
    2ba8:	e1550001 	cmp	r5, r1
    2bac:	e3a0c001 	mov	ip, #1
    2bb0:	aaffffeb 	bge	2b64 <isDeviceSleep+0x248>
    2bb4:	e1a0200c 	mov	r2, ip
    2bb8:	ea00000a 	b	2be8 <isDeviceSleep+0x2cc>
    2bbc:	e3530000 	cmp	r3, #0
    2bc0:	d3a01000 	movle	r1, #0
    2bc4:	caffff72 	bgt	2994 <isDeviceSleep+0x78>
    2bc8:	eaffff7b 	b	29bc <isDeviceSleep+0xa0>
    2bcc:	e1550001 	cmp	r5, r1
    2bd0:	e3a0c001 	mov	ip, #1
    2bd4:	bafffff6 	blt	2bb4 <isDeviceSleep+0x298>
    2bd8:	e2822040 	add	r2, r2, #64	; 0x40
    2bdc:	e1520000 	cmp	r2, r0
    2be0:	1affffe9 	bne	2b8c <isDeviceSleep+0x270>
    2be4:	e3a02000 	mov	r2, #0
    2be8:	e22ee001 	eor	lr, lr, #1
    2bec:	e20e30ff 	and	r3, lr, #255	; 0xff
    2bf0:	e1530006 	cmp	r3, r6
    2bf4:	93a06000 	movls	r6, #0
    2bf8:	820c6001 	andhi	r6, ip, #1
    2bfc:	e3560000 	cmp	r6, #0
    2c00:	01a06002 	moveq	r6, r2
    2c04:	13a06001 	movne	r6, #1
    2c08:	e1a00006 	mov	r0, r6
    2c0c:	e28dd044 	add	sp, sp, #68	; 0x44
    2c10:	e8bd8ff0 	pop	{r4, r5, r6, r7, r8, r9, sl, fp, pc}
    2c14:	000042a0 	.word	0x000042a0
			2c14: R_ARM_REL32	.bss
    2c18:	10624dd3 	.word	0x10624dd3
    2c1c:	000927c0 	.word	0x000927c0

00002c20 <InitSessionInfo>:
    2c20:	e92d47f0 	push	{r4, r5, r6, r7, r8, r9, sl, lr}
    2c24:	e2505000 	subs	r5, r0, #0
    2c28:	08bd87f0 	popeq	{r4, r5, r6, r7, r8, r9, sl, pc}
    2c2c:	e59f2158 	ldr	r2, [pc, #344]	; 2d8c <InitSessionInfo+0x16c>
    2c30:	e3a01000 	mov	r1, #0
    2c34:	ebfffffe 	bl	0 <memset>
			2c34: R_ARM_CALL	memset
    2c38:	e5952218 	ldr	r2, [r5, #536]	; 0x218
    2c3c:	e3a03001 	mov	r3, #1
    2c40:	e3520000 	cmp	r2, #0
    2c44:	e5c531f8 	strb	r3, [r5, #504]	; 0x1f8
    2c48:	0a00004c 	beq	2d80 <InitSessionInfo+0x160>
    2c4c:	e3a01001 	mov	r1, #1
    2c50:	e2853e36 	add	r3, r5, #864	; 0x360
    2c54:	e2854e3e 	add	r4, r5, #992	; 0x3e0
    2c58:	e3a02000 	mov	r2, #0
    2c5c:	e5c51019 	strb	r1, [r5, #25]
    2c60:	e5a32004 	str	r2, [r3, #4]!
    2c64:	e1530004 	cmp	r3, r4
    2c68:	e5832080 	str	r2, [r3, #128]	; 0x80
    2c6c:	e5832100 	str	r2, [r3, #256]	; 0x100
    2c70:	1afffffa 	bne	2c60 <InitSessionInfo+0x40>
    2c74:	e1a03005 	mov	r3, r5
    2c78:	e2854b02 	add	r4, r5, #2048	; 0x800
    2c7c:	e3e02000 	mvn	r2, #0
    2c80:	e5832738 	str	r2, [r3, #1848]	; 0x738
    2c84:	e2833040 	add	r3, r3, #64	; 0x40
    2c88:	e1530004 	cmp	r3, r4
    2c8c:	1afffffb 	bne	2c80 <InitSessionInfo+0x60>
    2c90:	e59f30f8 	ldr	r3, [pc, #248]	; 2d90 <InitSessionInfo+0x170>
    2c94:	e08f3003 	add	r3, pc, r3
    2c98:	e5933000 	ldr	r3, [r3]
    2c9c:	e3530000 	cmp	r3, #0
    2ca0:	08bd87f0 	popeq	{r4, r5, r6, r7, r8, r9, sl, pc}
    2ca4:	e59f60e8 	ldr	r6, [pc, #232]	; 2d94 <InitSessionInfo+0x174>
    2ca8:	e59fa0e8 	ldr	sl, [pc, #232]	; 2d98 <InitSessionInfo+0x178>
    2cac:	e08f6006 	add	r6, pc, r6
    2cb0:	e2466e76 	sub	r6, r6, #1888	; 0x760
    2cb4:	e2854e57 	add	r4, r5, #1392	; 0x570
    2cb8:	e246600c 	sub	r6, r6, #12
    2cbc:	e2857e5a 	add	r7, r5, #1440	; 0x5a0
    2cc0:	e08fa00a 	add	sl, pc, sl
    2cc4:	e1a08006 	mov	r8, r6
    2cc8:	e2844004 	add	r4, r4, #4
    2ccc:	e2877004 	add	r7, r7, #4
    2cd0:	e3a09000 	mov	r9, #0
    2cd4:	e1a00006 	mov	r0, r6
    2cd8:	ebfffffe 	bl	0 <pthread_mutex_lock>
			2cd8: R_ARM_CALL	pthread_mutex_lock
    2cdc:	e5941000 	ldr	r1, [r4]
    2ce0:	e3510000 	cmp	r1, #0
    2ce4:	0a000004 	beq	2cfc <InitSessionInfo+0xdc>
    2ce8:	e59a0000 	ldr	r0, [sl]
    2cec:	e5903000 	ldr	r3, [r0]
    2cf0:	e593300c 	ldr	r3, [r3, #12]
    2cf4:	e12fff33 	blx	r3
    2cf8:	e5849000 	str	r9, [r4]
    2cfc:	e2844004 	add	r4, r4, #4
    2d00:	e1a00008 	mov	r0, r8
    2d04:	ebfffffe 	bl	0 <pthread_mutex_unlock>
			2d04: R_ARM_CALL	pthread_mutex_unlock
    2d08:	e1540007 	cmp	r4, r7
    2d0c:	1afffff0 	bne	2cd4 <InitSessionInfo+0xb4>
    2d10:	e59f8084 	ldr	r8, [pc, #132]	; 2d9c <InitSessionInfo+0x17c>
    2d14:	e2854c0f 	add	r4, r5, #3840	; 0xf00
    2d18:	e08f8008 	add	r8, pc, r8
    2d1c:	e2856ef1 	add	r6, r5, #3856	; 0xf10
    2d20:	e3a07000 	mov	r7, #0
    2d24:	e5943000 	ldr	r3, [r4]
    2d28:	e2531000 	subs	r1, r3, #0
    2d2c:	0a000006 	beq	2d4c <InitSessionInfo+0x12c>
    2d30:	e5980000 	ldr	r0, [r8]
    2d34:	e5903000 	ldr	r3, [r0]
    2d38:	e593300c 	ldr	r3, [r3, #12]
    2d3c:	e12fff33 	blx	r3
    2d40:	e3500000 	cmp	r0, #0
    2d44:	b8bd87f0 	poplt	{r4, r5, r6, r7, r8, r9, sl, pc}
    2d48:	e5847000 	str	r7, [r4]
    2d4c:	e2844004 	add	r4, r4, #4
    2d50:	e1540006 	cmp	r4, r6
    2d54:	1afffff2 	bne	2d24 <InitSessionInfo+0x104>
    2d58:	e3a03000 	mov	r3, #0
    2d5c:	e3e02000 	mvn	r2, #0
    2d60:	e5853628 	str	r3, [r5, #1576]	; 0x628
    2d64:	e585362c 	str	r3, [r5, #1580]	; 0x62c
    2d68:	e5853630 	str	r3, [r5, #1584]	; 0x630
    2d6c:	e5853634 	str	r3, [r5, #1588]	; 0x634
    2d70:	e5853638 	str	r3, [r5, #1592]	; 0x638
    2d74:	e585263c 	str	r2, [r5, #1596]	; 0x63c
    2d78:	e58525ec 	str	r2, [r5, #1516]	; 0x5ec
    2d7c:	e8bd87f0 	pop	{r4, r5, r6, r7, r8, r9, sl, pc}
    2d80:	e2850f86 	add	r0, r5, #536	; 0x218
    2d84:	ebfffffe 	bl	0 <IOTC_Reliable_NewReliance>
			2d84: R_ARM_CALL	IOTC_Reliable_NewReliance
    2d88:	eaffffaf 	b	2c4c <InitSessionInfo+0x2c>
    2d8c:	00001010 	.word	0x00001010
    2d90:	000000f4 	.word	0x000000f4
			2d90: R_ARM_REL32	.bss
    2d94:	000020d8 	.word	0x000020d8
			2d94: R_ARM_REL32	.bss
    2d98:	000000d0 	.word	0x000000d0
			2d98: R_ARM_REL32	.bss
    2d9c:	0000007c 	.word	0x0000007c
			2d9c: R_ARM_REL32	.bss

00002da0 <__Get_Free_Session>:
    2da0:	e92d4070 	push	{r4, r5, r6, lr}
    2da4:	e59f50a4 	ldr	r5, [pc, #164]	; 2e50 <__Get_Free_Session+0xb0>
    2da8:	e79f5005 	ldr	r5, [pc, r5]
    2dac:	e1a00005 	mov	r0, r5
    2db0:	ebfffffe 	bl	0 <pthread_mutex_lock>
			2db0: R_ARM_CALL	pthread_mutex_lock
    2db4:	e59f3098 	ldr	r3, [pc, #152]	; 2e54 <__Get_Free_Session+0xb4>
    2db8:	e79f1003 	ldr	r1, [pc, r3]
    2dbc:	e3510000 	cmp	r1, #0
    2dc0:	da000012 	ble	2e10 <__Get_Free_Session+0x70>
    2dc4:	e59f608c 	ldr	r6, [pc, #140]	; 2e58 <__Get_Free_Session+0xb8>
    2dc8:	e79f6006 	ldr	r6, [pc, r6]
    2dcc:	e5960000 	ldr	r0, [r6]
    2dd0:	e5d04019 	ldrb	r4, [r0, #25]
    2dd4:	e3540000 	cmp	r4, #0
    2dd8:	12800a01 	addne	r0, r0, #4096	; 0x1000
    2ddc:	12803010 	addne	r3, r0, #16
    2de0:	13a04000 	movne	r4, #0
    2de4:	1a000003 	bne	2df8 <__Get_Free_Session+0x58>
    2de8:	ea00000d 	b	2e24 <__Get_Free_Session+0x84>
    2dec:	e5532ff7 	ldrb	r2, [r3, #-4087]	; 0xfffff009
    2df0:	e3520000 	cmp	r2, #0
    2df4:	0a00000a 	beq	2e24 <__Get_Free_Session+0x84>
    2df8:	e2844001 	add	r4, r4, #1
    2dfc:	e2832a01 	add	r2, r3, #4096	; 0x1000
    2e00:	e1540001 	cmp	r4, r1
    2e04:	e1a00003 	mov	r0, r3
    2e08:	e2823010 	add	r3, r2, #16
    2e0c:	1afffff6 	bne	2dec <__Get_Free_Session+0x4c>
    2e10:	e3e04000 	mvn	r4, #0
    2e14:	e1a00005 	mov	r0, r5
    2e18:	ebfffffe 	bl	0 <pthread_mutex_unlock>
			2e18: R_ARM_CALL	pthread_mutex_unlock
    2e1c:	e1a00004 	mov	r0, r4
    2e20:	e8bd8070 	pop	{r4, r5, r6, pc}
    2e24:	ebffff7d 	bl	2c20 <InitSessionInfo>
    2e28:	e59f302c 	ldr	r3, [pc, #44]	; 2e5c <__Get_Free_Session+0xbc>
    2e2c:	e08f3003 	add	r3, pc, r3
    2e30:	e5933000 	ldr	r3, [r3]
    2e34:	e1540003 	cmp	r4, r3
    2e38:	aafffff4 	bge	2e10 <__Get_Free_Session+0x70>
    2e3c:	e5963000 	ldr	r3, [r6]
    2e40:	e0842404 	add	r2, r4, r4, lsl #8
    2e44:	e0833202 	add	r3, r3, r2, lsl #4
    2e48:	e5834640 	str	r4, [r3, #1600]	; 0x640
    2e4c:	eafffff0 	b	2e14 <__Get_Free_Session+0x74>
    2e50:	000000a0 	.word	0x000000a0
			2e50: R_ARM_GOT_PREL	gSessionLock
    2e54:	00000094 	.word	0x00000094
			2e54: R_ARM_REL32	.data
    2e58:	00000088 	.word	0x00000088
			2e58: R_ARM_GOT_PREL	gSessionInfo
    2e5c:	00000028 	.word	0x00000028
			2e5c: R_ARM_REL32	.data

00002e60 <IsPrivateIP>:
    2e60:	e92d41f0 	push	{r4, r5, r6, r7, r8, lr}
    2e64:	e3a0103a 	mov	r1, #58	; 0x3a
    2e68:	e24dd018 	sub	sp, sp, #24
    2e6c:	e1a04000 	mov	r4, r0
    2e70:	ebfffffe 	bl	0 <strchr>
			2e70: R_ARM_CALL	strchr
    2e74:	e3500000 	cmp	r0, #0
    2e78:	e1a00004 	mov	r0, r4
    2e7c:	0a00003c 	beq	2f74 <IsPrivateIP+0x114>
    2e80:	e59f1120 	ldr	r1, [pc, #288]	; 2fa8 <IsPrivateIP+0x148>
    2e84:	e3a02004 	mov	r2, #4
    2e88:	e08f1001 	add	r1, pc, r1
    2e8c:	ebfffffe 	bl	0 <strncmp>
			2e8c: R_ARM_CALL	strncmp
    2e90:	e3500000 	cmp	r0, #0
    2e94:	0a000033 	beq	2f68 <IsPrivateIP+0x108>
    2e98:	e59f610c 	ldr	r6, [pc, #268]	; 2fac <IsPrivateIP+0x14c>
    2e9c:	e284501e 	add	r5, r4, #30
    2ea0:	e08f6006 	add	r6, pc, r6
    2ea4:	e1a01006 	mov	r1, r6
    2ea8:	e1a00005 	mov	r0, r5
    2eac:	e3a02004 	mov	r2, #4
    2eb0:	ebfffffe 	bl	0 <strncmp>
			2eb0: R_ARM_CALL	strncmp
    2eb4:	e3500000 	cmp	r0, #0
    2eb8:	0a00002a 	beq	2f68 <IsPrivateIP+0x108>
    2ebc:	e59f70ec 	ldr	r7, [pc, #236]	; 2fb0 <IsPrivateIP+0x150>
    2ec0:	e1a00005 	mov	r0, r5
    2ec4:	e08f7007 	add	r7, pc, r7
    2ec8:	e1a01007 	mov	r1, r7
    2ecc:	e3a02004 	mov	r2, #4
    2ed0:	ebfffffe 	bl	0 <strncmp>
			2ed0: R_ARM_CALL	strncmp
    2ed4:	e3500000 	cmp	r0, #0
    2ed8:	0a000022 	beq	2f68 <IsPrivateIP+0x108>
    2edc:	e59f80d0 	ldr	r8, [pc, #208]	; 2fb4 <IsPrivateIP+0x154>
    2ee0:	e1a00005 	mov	r0, r5
    2ee4:	e08f8008 	add	r8, pc, r8
    2ee8:	e1a01008 	mov	r1, r8
    2eec:	e3a02004 	mov	r2, #4
    2ef0:	ebfffffe 	bl	0 <strncmp>
			2ef0: R_ARM_CALL	strncmp
    2ef4:	e3500000 	cmp	r0, #0
    2ef8:	0a00001a 	beq	2f68 <IsPrivateIP+0x108>
    2efc:	e59f10b4 	ldr	r1, [pc, #180]	; 2fb8 <IsPrivateIP+0x158>
    2f00:	e2840002 	add	r0, r4, #2
    2f04:	e08f1001 	add	r1, pc, r1
    2f08:	e3a02004 	mov	r2, #4
    2f0c:	ebfffffe 	bl	0 <strncmp>
			2f0c: R_ARM_CALL	strncmp
    2f10:	e2503000 	subs	r3, r0, #0
    2f14:	0a000018 	beq	2f7c <IsPrivateIP+0x11c>
    2f18:	e2844009 	add	r4, r4, #9
    2f1c:	e1a01006 	mov	r1, r6
    2f20:	e1a00004 	mov	r0, r4
    2f24:	e3a02004 	mov	r2, #4
    2f28:	ebfffffe 	bl	0 <strncmp>
			2f28: R_ARM_CALL	strncmp
    2f2c:	e3500000 	cmp	r0, #0
    2f30:	0a00000c 	beq	2f68 <IsPrivateIP+0x108>
    2f34:	e1a01007 	mov	r1, r7
    2f38:	e1a00004 	mov	r0, r4
    2f3c:	e3a02004 	mov	r2, #4
    2f40:	ebfffffe 	bl	0 <strncmp>
			2f40: R_ARM_CALL	strncmp
    2f44:	e3500000 	cmp	r0, #0
    2f48:	0a000006 	beq	2f68 <IsPrivateIP+0x108>
    2f4c:	e1a00004 	mov	r0, r4
    2f50:	e1a01008 	mov	r1, r8
    2f54:	e3a02004 	mov	r2, #4
    2f58:	ebfffffe 	bl	0 <strncmp>
			2f58: R_ARM_CALL	strncmp
    2f5c:	e16f0f10 	clz	r0, r0
    2f60:	e1a002a0 	lsr	r0, r0, #5
    2f64:	ea000000 	b	2f6c <IsPrivateIP+0x10c>
    2f68:	e3a00001 	mov	r0, #1
    2f6c:	e28dd018 	add	sp, sp, #24
    2f70:	e8bd81f0 	pop	{r4, r5, r6, r7, r8, pc}
    2f74:	ebfff76f 	bl	d38 <IsPrivateIPforV4>
    2f78:	eafffffb 	b	2f6c <IsPrivateIP+0x10c>
    2f7c:	e28d2004 	add	r2, sp, #4
    2f80:	e2841007 	add	r1, r4, #7
    2f84:	e1a00002 	mov	r0, r2
    2f88:	e58d3004 	str	r3, [sp, #4]
    2f8c:	e58d3008 	str	r3, [sp, #8]
    2f90:	e58d300c 	str	r3, [sp, #12]
    2f94:	e58d3010 	str	r3, [sp, #16]
    2f98:	e58d3014 	str	r3, [sp, #20]
    2f9c:	ebfffffe 	bl	0 <strcpy>
			2f9c: R_ARM_CALL	strcpy
    2fa0:	ebfff764 	bl	d38 <IsPrivateIPforV4>
    2fa4:	eafffff0 	b	2f6c <IsPrivateIP+0x10c>
    2fa8:	00000118 	.word	0x00000118
			2fa8: R_ARM_REL32	.LC4
    2fac:	00000104 	.word	0x00000104
			2fac: R_ARM_REL32	.LC5
    2fb0:	000000e4 	.word	0x000000e4
			2fb0: R_ARM_REL32	.LC6
    2fb4:	000000c8 	.word	0x000000c8
			2fb4: R_ARM_REL32	.LC7
    2fb8:	000000ac 	.word	0x000000ac
			2fb8: R_ARM_REL32	.LC8

00002fbc <_UpdateSendPathAddres.constprop.120>:
    2fbc:	e92d4038 	push	{r3, r4, r5, lr}
    2fc0:	e59f305c 	ldr	r3, [pc, #92]	; 3024 <_UpdateSendPathAddres.constprop.120+0x68>
    2fc4:	e0800400 	add	r0, r0, r0, lsl #8
    2fc8:	e79f3003 	ldr	r3, [pc, r3]
    2fcc:	e3a02014 	mov	r2, #20
    2fd0:	e5933000 	ldr	r3, [r3]
    2fd4:	e1a05001 	mov	r5, r1
    2fd8:	e0834200 	add	r4, r3, r0, lsl #4
    2fdc:	e28400ac 	add	r0, r4, #172	; 0xac
    2fe0:	ebfffffe 	bl	0 <memcpy>
			2fe0: R_ARM_CALL	memcpy
    2fe4:	e594363c 	ldr	r3, [r4, #1596]	; 0x63c
    2fe8:	e3530001 	cmp	r3, #1
    2fec:	0a000007 	beq	3010 <_UpdateSendPathAddres.constprop.120+0x54>
    2ff0:	d8bd8038 	pople	{r3, r4, r5, pc}
    2ff4:	e1a01005 	mov	r1, r5
    2ff8:	e2840098 	add	r0, r4, #152	; 0x98
    2ffc:	e3a02014 	mov	r2, #20
    3000:	ebfffffe 	bl	0 <memcpy>
			3000: R_ARM_CALL	memcpy
    3004:	e3a03001 	mov	r3, #1
    3008:	e584363c 	str	r3, [r4, #1596]	; 0x63c
    300c:	e8bd8038 	pop	{r3, r4, r5, pc}
    3010:	e2840098 	add	r0, r4, #152	; 0x98
    3014:	e1a01005 	mov	r1, r5
    3018:	e3a02014 	mov	r2, #20
    301c:	e8bd4038 	pop	{r3, r4, r5, lr}
    3020:	eafffffe 	b	0 <memcpy>
			3020: R_ARM_JUMP24	memcpy
    3024:	00000054 	.word	0x00000054
			3024: R_ARM_GOT_PREL	gSessionInfo

00003028 <IOTC_TCPConnectToServer.constprop.122>:
    3028:	e92d4ff0 	push	{r4, r5, r6, r7, r8, r9, sl, fp, lr}
    302c:	e59f531c 	ldr	r5, [pc, #796]	; 3350 <IOTC_TCPConnectToServer.constprop.122+0x328>
    3030:	e24dd064 	sub	sp, sp, #100	; 0x64
    3034:	e08f5005 	add	r5, pc, r5
    3038:	e58d001c 	str	r0, [sp, #28]
    303c:	e3a09000 	mov	r9, #0
    3040:	e2850f43 	add	r0, r5, #268	; 0x10c
    3044:	e1a04001 	mov	r4, r1
    3048:	e5059668 	str	r9, [r5, #-1640]	; 0xfffff998
    304c:	e5c5967e 	strb	r9, [r5, #1662]	; 0x67e
    3050:	ebfff544 	bl	568 <__Search_DeviceInfo>
    3054:	e3500000 	cmp	r0, #0
    3058:	ba00009c 	blt	32d0 <IOTC_TCPConnectToServer.constprop.122+0x2a8>
    305c:	e59f72f0 	ldr	r7, [pc, #752]	; 3354 <IOTC_TCPConnectToServer.constprop.122+0x32c>
    3060:	e3a03054 	mov	r3, #84	; 0x54
    3064:	e08f7007 	add	r7, pc, r7
    3068:	e0207093 	mla	r0, r3, r0, r7
    306c:	e2803048 	add	r3, r0, #72	; 0x48
    3070:	e1d025b0 	ldrh	r2, [r0, #80]	; 0x50
    3074:	e1d310b6 	ldrh	r1, [r3, #6]
    3078:	e1d004bc 	ldrh	r0, [r0, #76]	; 0x4c
    307c:	ebfff55b 	bl	5f0 <__Search_VPGServerList>
    3080:	e2506000 	subs	r6, r0, #0
    3084:	ba000091 	blt	32d0 <IOTC_TCPConnectToServer.constprop.122+0x2a8>
    3088:	e5953128 	ldr	r3, [r5, #296]	; 0x128
    308c:	e3530001 	cmp	r3, #1
    3090:	0a00000a 	beq	30c0 <IOTC_TCPConnectToServer.constprop.122+0x98>
    3094:	e59f32bc 	ldr	r3, [pc, #700]	; 3358 <IOTC_TCPConnectToServer.constprop.122+0x330>
    3098:	e08f3003 	add	r3, pc, r3
    309c:	e5d3246e 	ldrb	r2, [r3, #1134]	; 0x46e
    30a0:	e3520001 	cmp	r2, #1
    30a4:	0a000089 	beq	32d0 <IOTC_TCPConnectToServer.constprop.122+0x2a8>
    30a8:	e5d3367e 	ldrb	r3, [r3, #1662]	; 0x67e
    30ac:	e3530000 	cmp	r3, #0
    30b0:	0a000086 	beq	32d0 <IOTC_TCPConnectToServer.constprop.122+0x2a8>
    30b4:	e3a00001 	mov	r0, #1
    30b8:	e28dd064 	add	sp, sp, #100	; 0x64
    30bc:	e8bd8ff0 	pop	{r4, r5, r6, r7, r8, r9, sl, fp, pc}
    30c0:	e5972000 	ldr	r2, [r7]
    30c4:	e3a03010 	mov	r3, #16
    30c8:	e3520000 	cmp	r2, #0
    30cc:	e1cd92b4 	strh	r9, [sp, #36]	; 0x24
    30d0:	e58d3028 	str	r3, [sp, #40]	; 0x28
    30d4:	0a00007d 	beq	32d0 <IOTC_TCPConnectToServer.constprop.122+0x2a8>
    30d8:	e2457eaf 	sub	r7, r5, #2800	; 0xaf0
    30dc:	e1a00007 	mov	r0, r7
    30e0:	e0666186 	rsb	r6, r6, r6, lsl #3
    30e4:	ebfffffe 	bl	0 <pthread_mutex_lock>
			30e4: R_ARM_CALL	pthread_mutex_lock
    30e8:	e1a03106 	lsl	r3, r6, #2
    30ec:	e2450eae 	sub	r0, r5, #2784	; 0xae0
    30f0:	e080c003 	add	ip, r0, r3
    30f4:	e15c10b6 	ldrh	r1, [ip, #-6]
    30f8:	e3510000 	cmp	r1, #0
    30fc:	0a00006f 	beq	32c0 <IOTC_TCPConnectToServer.constprop.122+0x298>
    3100:	e59f7254 	ldr	r7, [pc, #596]	; 335c <IOTC_TCPConnectToServer.constprop.122+0x334>
    3104:	e1a00003 	mov	r0, r3
    3108:	e08f7007 	add	r7, pc, r7
    310c:	e2472eae 	sub	r2, r7, #2784	; 0xae0
    3110:	e58d3014 	str	r3, [sp, #20]
    3114:	e242200c 	sub	r2, r2, #12
    3118:	e59f3240 	ldr	r3, [pc, #576]	; 3360 <IOTC_TCPConnectToServer.constprop.122+0x338>
    311c:	e0822000 	add	r2, r2, r0
    3120:	e08f3003 	add	r3, pc, r3
    3124:	e58d2018 	str	r2, [sp, #24]
    3128:	e59f2234 	ldr	r2, [pc, #564]	; 3364 <IOTC_TCPConnectToServer.constprop.122+0x33c>
    312c:	e1a06009 	mov	r6, r9
    3130:	e1a08009 	mov	r8, r9
    3134:	e5031ed8 	str	r1, [r3, #-3800]	; 0xfffff128
    3138:	e5034ed4 	str	r4, [r3, #-3796]	; 0xfffff12c
    313c:	e5039ec8 	str	r9, [r3, #-3784]	; 0xfffff138
    3140:	e5032ecc 	str	r2, [r3, #-3788]	; 0xfffff134
    3144:	ea000044 	b	325c <IOTC_TCPConnectToServer.constprop.122+0x234>
    3148:	e59b0000 	ldr	r0, [fp]
    314c:	e48c4004 	str	r4, [ip], #4
    3150:	e28cc004 	add	ip, ip, #4
    3154:	e5854004 	str	r4, [r5, #4]
    3158:	e48c4004 	str	r4, [ip], #4
    315c:	e58c4000 	str	r4, [ip]
    3160:	e590c000 	ldr	ip, [r0]
    3164:	e58de000 	str	lr, [sp]
    3168:	e59cc008 	ldr	ip, [ip, #8]
    316c:	e12fff3c 	blx	ip
    3170:	e28d3026 	add	r3, sp, #38	; 0x26
    3174:	e3a0102e 	mov	r1, #46	; 0x2e
    3178:	e1a02009 	mov	r2, r9
    317c:	e3500000 	cmp	r0, #0
    3180:	ba000055 	blt	32dc <IOTC_TCPConnectToServer.constprop.122+0x2b4>
    3184:	e59d0010 	ldr	r0, [sp, #16]
    3188:	e51aeadc 	ldr	lr, [sl, #-2780]	; 0xfffff524
    318c:	e150c0b8 	ldrh	ip, [r0, #-8]
    3190:	e1a0042c 	lsr	r0, ip, #8
    3194:	e180c40c 	orr	ip, r0, ip, lsl #8
    3198:	e1a0c80c 	lsl	ip, ip, #16
    319c:	e1a0c82c 	lsr	ip, ip, #16
    31a0:	e08e0006 	add	r0, lr, r6
    31a4:	e1c0c0b2 	strh	ip, [r0, #2]
    31a8:	e58d4000 	str	r4, [sp]
    31ac:	e1cdc2b4 	strh	ip, [sp, #36]	; 0x24
    31b0:	ebfffffe 	bl	0 <iotc_netaddr_get_content>
			31b0: R_ARM_CALL	iotc_netaddr_get_content
    31b4:	e51a2adc 	ldr	r2, [sl, #-2780]	; 0xfffff524
    31b8:	e59d002c 	ldr	r0, [sp, #44]	; 0x2c
    31bc:	e0822006 	add	r2, r2, r6
    31c0:	e2873f43 	add	r3, r7, #268	; 0x10c
    31c4:	e885000c 	stm	r5, {r2, r3}
    31c8:	e59f1198 	ldr	r1, [pc, #408]	; 3368 <IOTC_TCPConnectToServer.constprop.122+0x340>
    31cc:	e5903000 	ldr	r3, [r0]
    31d0:	e08f1001 	add	r1, pc, r1
    31d4:	e5933014 	ldr	r3, [r3, #20]
    31d8:	e1a02004 	mov	r2, r4
    31dc:	e12fff33 	blx	r3
    31e0:	e59fe184 	ldr	lr, [pc, #388]	; 336c <IOTC_TCPConnectToServer.constprop.122+0x344>
    31e4:	e59fc184 	ldr	ip, [pc, #388]	; 3370 <IOTC_TCPConnectToServer.constprop.122+0x348>
    31e8:	e08fe00e 	add	lr, pc, lr
    31ec:	e08fc00c 	add	ip, pc, ip
    31f0:	e1a01009 	mov	r1, r9
    31f4:	e28d2024 	add	r2, sp, #36	; 0x24
    31f8:	e1a03004 	mov	r3, r4
    31fc:	e2866014 	add	r6, r6, #20
    3200:	e3500000 	cmp	r0, #0
    3204:	ba000034 	blt	32dc <IOTC_TCPConnectToServer.constprop.122+0x2b4>
    3208:	e59d002c 	ldr	r0, [sp, #44]	; 0x2c
    320c:	e5909000 	ldr	r9, [r0]
    3210:	e58de000 	str	lr, [sp]
    3214:	e98d1020 	stmib	sp, {r5, ip}
    3218:	e58d500c 	str	r5, [sp, #12]
    321c:	e599c008 	ldr	ip, [r9, #8]
    3220:	e12fff3c 	blx	ip
    3224:	e1a01004 	mov	r1, r4
    3228:	e28d2028 	add	r2, sp, #40	; 0x28
    322c:	e3500000 	cmp	r0, #0
    3230:	ba000029 	blt	32dc <IOTC_TCPConnectToServer.constprop.122+0x2b4>
    3234:	e59d002c 	ldr	r0, [sp, #44]	; 0x2c
    3238:	e5903000 	ldr	r3, [r0]
    323c:	e5933028 	ldr	r3, [r3, #40]	; 0x28
    3240:	e12fff33 	blx	r3
    3244:	e3500000 	cmp	r0, #0
    3248:	ba000023 	blt	32dc <IOTC_TCPConnectToServer.constprop.122+0x2b4>
    324c:	e59d3018 	ldr	r3, [sp, #24]
    3250:	e1d330b6 	ldrh	r3, [r3, #6]
    3254:	e1580003 	cmp	r8, r3
    3258:	aa000026 	bge	32f8 <IOTC_TCPConnectToServer.constprop.122+0x2d0>
    325c:	e2473e65 	sub	r3, r7, #1616	; 0x650
    3260:	e58d3010 	str	r3, [sp, #16]
    3264:	e59d3014 	ldr	r3, [sp, #20]
    3268:	e3a04000 	mov	r4, #0
    326c:	e3a00010 	mov	r0, #16
    3270:	e087a003 	add	sl, r7, r3
    3274:	e58d402c 	str	r4, [sp, #44]	; 0x2c
    3278:	ebfffffe 	bl	0 <malloc>
			3278: R_ARM_CALL	malloc
    327c:	e59fb0f0 	ldr	fp, [pc, #240]	; 3374 <IOTC_TCPConnectToServer.constprop.122+0x34c>
    3280:	e28d9030 	add	r9, sp, #48	; 0x30
    3284:	e08fb00b 	add	fp, pc, fp
    3288:	e28de02c 	add	lr, sp, #44	; 0x2c
    328c:	e1a01004 	mov	r1, r4
    3290:	e1a02004 	mov	r2, r4
    3294:	e1a03004 	mov	r3, r4
    3298:	e2888001 	add	r8, r8, #1
    329c:	e2505000 	subs	r5, r0, #0
    32a0:	e1a0c005 	mov	ip, r5
    32a4:	1affffa7 	bne	3148 <IOTC_TCPConnectToServer.constprop.122+0x120>
    32a8:	e59f00c8 	ldr	r0, [pc, #200]	; 3378 <IOTC_TCPConnectToServer.constprop.122+0x350>
    32ac:	e08f0000 	add	r0, pc, r0
    32b0:	e2400eaf 	sub	r0, r0, #2800	; 0xaf0
    32b4:	ebfffffe 	bl	0 <pthread_mutex_unlock>
			32b4: R_ARM_CALL	pthread_mutex_unlock
    32b8:	e3e00000 	mvn	r0, #0
    32bc:	eaffff7d 	b	30b8 <IOTC_TCPConnectToServer.constprop.122+0x90>
    32c0:	e1a00007 	mov	r0, r7
    32c4:	ebfffffe 	bl	0 <pthread_mutex_unlock>
			32c4: R_ARM_CALL	pthread_mutex_unlock
    32c8:	e3e00000 	mvn	r0, #0
    32cc:	eaffff79 	b	30b8 <IOTC_TCPConnectToServer.constprop.122+0x90>
    32d0:	e3e00000 	mvn	r0, #0
    32d4:	e28dd064 	add	sp, sp, #100	; 0x64
    32d8:	e8bd8ff0 	pop	{r4, r5, r6, r7, r8, r9, sl, fp, pc}
    32dc:	ebfffd7d 	bl	28d8 <EndOneTCPConnServerTask>
    32e0:	e59f0094 	ldr	r0, [pc, #148]	; 337c <IOTC_TCPConnectToServer.constprop.122+0x354>
    32e4:	e08f0000 	add	r0, pc, r0
    32e8:	e2400eaf 	sub	r0, r0, #2800	; 0xaf0
    32ec:	ebfffffe 	bl	0 <pthread_mutex_unlock>
			32ec: R_ARM_CALL	pthread_mutex_unlock
    32f0:	e3e00000 	mvn	r0, #0
    32f4:	eaffff6f 	b	30b8 <IOTC_TCPConnectToServer.constprop.122+0x90>
    32f8:	e2470eaf 	sub	r0, r7, #2800	; 0xaf0
    32fc:	e59db010 	ldr	fp, [sp, #16]
    3300:	ebfffffe 	bl	0 <pthread_mutex_unlock>
			3300: R_ARM_CALL	pthread_mutex_unlock
    3304:	e59d301c 	ldr	r3, [sp, #28]
    3308:	e3530000 	cmp	r3, #0
    330c:	0a00000d 	beq	3348 <IOTC_TCPConnectToServer.constprop.122+0x320>
    3310:	e5d7367e 	ldrb	r3, [r7, #1662]	; 0x67e
    3314:	e3530001 	cmp	r3, #1
    3318:	0affff5d 	beq	3094 <IOTC_TCPConnectToServer.constprop.122+0x6c>
    331c:	e28b4e65 	add	r4, fp, #1616	; 0x650
    3320:	e59f5058 	ldr	r5, [pc, #88]	; 3380 <IOTC_TCPConnectToServer.constprop.122+0x358>
    3324:	ea000001 	b	3330 <IOTC_TCPConnectToServer.constprop.122+0x308>
    3328:	e2555001 	subs	r5, r5, #1
    332c:	0affff58 	beq	3094 <IOTC_TCPConnectToServer.constprop.122+0x6c>
    3330:	e59f004c 	ldr	r0, [pc, #76]	; 3384 <IOTC_TCPConnectToServer.constprop.122+0x35c>
    3334:	ebfffffe 	bl	0 <usleep>
			3334: R_ARM_CALL	usleep
    3338:	e5d4367e 	ldrb	r3, [r4, #1662]	; 0x67e
    333c:	e3530001 	cmp	r3, #1
    3340:	1afffff8 	bne	3328 <IOTC_TCPConnectToServer.constprop.122+0x300>
    3344:	eaffff52 	b	3094 <IOTC_TCPConnectToServer.constprop.122+0x6c>
    3348:	e59d001c 	ldr	r0, [sp, #28]
    334c:	eaffff59 	b	30b8 <IOTC_TCPConnectToServer.constprop.122+0x90>
    3350:	0000230c 	.word	0x0000230c
			3350: R_ARM_REL32	.bss
    3354:	000002e8 	.word	0x000002e8
			3354: R_ARM_REL32	.bss
    3358:	000022b0 	.word	0x000022b0
			3358: R_ARM_REL32	.bss
    335c:	00002244 	.word	0x00002244
			335c: R_ARM_REL32	.bss
    3360:	00004228 	.word	0x00004228
			3360: R_ARM_REL32	.bss
    3364:	000493e0 	.word	0x000493e0
    3368:	0001aebc 	.word	0x0001aebc
    336c:	0000125c 	.word	0x0000125c
    3370:	000011cc 	.word	0x000011cc
    3374:	000000e8 	.word	0x000000e8
			3374: R_ARM_REL32	.bss
    3378:	000020bc 	.word	0x000020bc
			3378: R_ARM_REL32	.bss
    337c:	00002088 	.word	0x00002088
			337c: R_ARM_REL32	.bss
    3380:	00002329 	.word	0x00002329
    3384:	00002710 	.word	0x00002710

00003388 <TCPReconnectServerTaskCB>:
    3388:	e59f3040 	ldr	r3, [pc, #64]	; 33d0 <TCPReconnectServerTaskCB+0x48>
    338c:	e08f3003 	add	r3, pc, r3
    3390:	e5132ec8 	ldr	r2, [r3, #-3784]	; 0xfffff138
    3394:	e3520000 	cmp	r2, #0
    3398:	1a000003 	bne	33ac <TCPReconnectServerTaskCB+0x24>
    339c:	e3a02001 	mov	r2, #1
    33a0:	e5032ec8 	str	r2, [r3, #-3784]	; 0xfffff138
    33a4:	e3a00000 	mov	r0, #0
    33a8:	e12fff1e 	bx	lr
    33ac:	e92d4010 	push	{r4, lr}
    33b0:	e3a01001 	mov	r1, #1
    33b4:	e1a04000 	mov	r4, r0
    33b8:	e3a00000 	mov	r0, #0
    33bc:	ebffff19 	bl	3028 <IOTC_TCPConnectToServer.constprop.122>
    33c0:	e1a00004 	mov	r0, r4
    33c4:	ebfffffe 	bl	0 <tutk_TaskMng_Delete>
			33c4: R_ARM_CALL	tutk_TaskMng_Delete
    33c8:	e3a00000 	mov	r0, #0
    33cc:	e8bd8010 	pop	{r4, pc}
    33d0:	0000402c 	.word	0x0000402c
			33d0: R_ARM_REL32	.bss

000033d4 <IOTC_TCPConnectServerError>:
    33d4:	e92d41f0 	push	{r4, r5, r6, r7, r8, lr}
    33d8:	e59f4070 	ldr	r4, [pc, #112]	; 3450 <IOTC_TCPConnectServerError+0x7c>
    33dc:	e08f4004 	add	r4, pc, r4
    33e0:	e5943000 	ldr	r3, [r4]
    33e4:	e3530000 	cmp	r3, #0
    33e8:	08bd81f0 	popeq	{r4, r5, r6, r7, r8, pc}
    33ec:	e59f6060 	ldr	r6, [pc, #96]	; 3454 <IOTC_TCPConnectServerError+0x80>
    33f0:	e1a01000 	mov	r1, r0
    33f4:	e08f6006 	add	r6, pc, r6
    33f8:	e516567c 	ldr	r5, [r6, #-1660]	; 0xfffff984
    33fc:	e1550000 	cmp	r5, r0
    3400:	0a000004 	beq	3418 <IOTC_TCPConnectServerError+0x44>
    3404:	e5932000 	ldr	r2, [r3]
    3408:	e1a00003 	mov	r0, r3
    340c:	e592200c 	ldr	r2, [r2, #12]
    3410:	e8bd41f0 	pop	{r4, r5, r6, r7, r8, lr}
    3414:	e12fff12 	bx	r2
    3418:	e5953000 	ldr	r3, [r5]
    341c:	e3a07000 	mov	r7, #0
    3420:	e5933004 	ldr	r3, [r3, #4]
    3424:	e12fff33 	blx	r3
    3428:	e5940000 	ldr	r0, [r4]
    342c:	e1a01005 	mov	r1, r5
    3430:	e5903000 	ldr	r3, [r0]
    3434:	e506767c 	str	r7, [r6, #-1660]	; 0xfffff984
    3438:	e593300c 	ldr	r3, [r3, #12]
    343c:	e12fff33 	blx	r3
    3440:	e1a00007 	mov	r0, r7
    3444:	e3a01001 	mov	r1, #1
    3448:	e8bd41f0 	pop	{r4, r5, r6, r7, r8, lr}
    344c:	eafffef5 	b	3028 <IOTC_TCPConnectToServer.constprop.122>
    3450:	0000006c 	.word	0x0000006c
			3450: R_ARM_REL32	.bss
    3454:	00002050 	.word	0x00002050
			3454: R_ARM_REL32	.bss

00003458 <__ReadBufList_Destroy>:
    3458:	e3500000 	cmp	r0, #0
    345c:	012fff1e 	bxeq	lr
    3460:	e92d4070 	push	{r4, r5, r6, lr}
    3464:	e5905000 	ldr	r5, [r0]
    3468:	e1a06000 	mov	r6, r0
    346c:	e3550000 	cmp	r5, #0
    3470:	0a00000b 	beq	34a4 <__ReadBufList_Destroy+0x4c>
    3474:	e595400c 	ldr	r4, [r5, #12]
    3478:	ea000001 	b	3484 <__ReadBufList_Destroy+0x2c>
    347c:	e1a05004 	mov	r5, r4
    3480:	e594400c 	ldr	r4, [r4, #12]
    3484:	e5953008 	ldr	r3, [r5, #8]
    3488:	e2530000 	subs	r0, r3, #0
    348c:	0a000000 	beq	3494 <__ReadBufList_Destroy+0x3c>
    3490:	ebfffffe 	bl	0 <free>
			3490: R_ARM_CALL	free
    3494:	e1a00005 	mov	r0, r5
    3498:	ebfffffe 	bl	0 <free>
			3498: R_ARM_CALL	free
    349c:	e3540000 	cmp	r4, #0
    34a0:	1afffff5 	bne	347c <__ReadBufList_Destroy+0x24>
    34a4:	e1a00006 	mov	r0, r6
    34a8:	e8bd4070 	pop	{r4, r5, r6, lr}
    34ac:	eafffffe 	b	0 <free>
			34ac: R_ARM_JUMP24	free

000034b0 <is_lan_search_record_found>:
    34b0:	e92d4ff0 	push	{r4, r5, r6, r7, r8, r9, sl, fp, lr}
    34b4:	e59f8200 	ldr	r8, [pc, #512]	; 36bc <is_lan_search_record_found+0x20c>
    34b8:	e24dd01c 	sub	sp, sp, #28
    34bc:	e08f8008 	add	r8, pc, r8
    34c0:	e5187694 	ldr	r7, [r8, #-1684]	; 0xfffff96c
    34c4:	e3570000 	cmp	r7, #0
    34c8:	da000078 	ble	36b0 <is_lan_search_record_found+0x200>
    34cc:	e59f41ec 	ldr	r4, [pc, #492]	; 36c0 <is_lan_search_record_found+0x210>
    34d0:	e3a030ae 	mov	r3, #174	; 0xae
    34d4:	e08f4004 	add	r4, pc, r4
    34d8:	e514bec0 	ldr	fp, [r4, #-3776]	; 0xfffff140
    34dc:	e1a05001 	mov	r5, r1
    34e0:	e021b793 	mla	r1, r3, r7, fp
    34e4:	e1a06002 	mov	r6, r2
    34e8:	e1a0a422 	lsr	sl, r2, #8
    34ec:	e5143ec4 	ldr	r3, [r4, #-3780]	; 0xfffff13c
    34f0:	e5182698 	ldr	r2, [r8, #-1688]	; 0xfffff968
    34f4:	e18aa406 	orr	sl, sl, r6, lsl #8
    34f8:	e58d1014 	str	r1, [sp, #20]
    34fc:	e5141ebc 	ldr	r1, [r4, #-3772]	; 0xfffff144
    3500:	e1a0a80a 	lsl	sl, sl, #16
    3504:	e1a09000 	mov	r9, r0
    3508:	e58d200c 	str	r2, [sp, #12]
    350c:	e58d3008 	str	r3, [sp, #8]
    3510:	e58d1010 	str	r1, [sp, #16]
    3514:	e1a0a82a 	lsr	sl, sl, #16
    3518:	e1a0400b 	mov	r4, fp
    351c:	e1a08001 	mov	r8, r1
    3520:	e1a06003 	mov	r6, r3
    3524:	e1a07002 	mov	r7, r2
    3528:	ea000047 	b	364c <is_lan_search_record_found+0x19c>
    352c:	e35b0000 	cmp	fp, #0
    3530:	0a000012 	beq	3580 <is_lan_search_record_found+0xd0>
    3534:	e1a00004 	mov	r0, r4
    3538:	e1a01009 	mov	r1, r9
    353c:	e3a02014 	mov	r2, #20
    3540:	ebfffffe 	bl	0 <strncmp>
			3540: R_ARM_CALL	strncmp
    3544:	e1d432b6 	ldrh	r3, [r4, #38]	; 0x26
    3548:	e58d3004 	str	r3, [sp, #4]
    354c:	e3500000 	cmp	r0, #0
    3550:	1a00000a 	bne	3580 <is_lan_search_record_found+0xd0>
    3554:	e1a00005 	mov	r0, r5
    3558:	ebfffffe 	bl	0 <strlen>
			3558: R_ARM_CALL	strlen
    355c:	e1a01005 	mov	r1, r5
    3560:	e1a02000 	mov	r2, r0
    3564:	e2840015 	add	r0, r4, #21
    3568:	ebfffffe 	bl	0 <strncmp>
			3568: R_ARM_CALL	strncmp
    356c:	e3500000 	cmp	r0, #0
    3570:	1a000002 	bne	3580 <is_lan_search_record_found+0xd0>
    3574:	e59d3004 	ldr	r3, [sp, #4]
    3578:	e153000a 	cmp	r3, sl
    357c:	0a000048 	beq	36a4 <is_lan_search_record_found+0x1f4>
    3580:	e59d300c 	ldr	r3, [sp, #12]
    3584:	e3530000 	cmp	r3, #0
    3588:	0a000012 	beq	35d8 <is_lan_search_record_found+0x128>
    358c:	e1a00007 	mov	r0, r7
    3590:	e1a01009 	mov	r1, r9
    3594:	e3a02014 	mov	r2, #20
    3598:	ebfffffe 	bl	0 <strncmp>
			3598: R_ARM_CALL	strncmp
    359c:	e1d734b4 	ldrh	r3, [r7, #68]	; 0x44
    35a0:	e58d3004 	str	r3, [sp, #4]
    35a4:	e3500000 	cmp	r0, #0
    35a8:	1a00000a 	bne	35d8 <is_lan_search_record_found+0x128>
    35ac:	e1a00005 	mov	r0, r5
    35b0:	ebfffffe 	bl	0 <strlen>
			35b0: R_ARM_CALL	strlen
    35b4:	e1a01005 	mov	r1, r5
    35b8:	e1a02000 	mov	r2, r0
    35bc:	e2870015 	add	r0, r7, #21
    35c0:	ebfffffe 	bl	0 <strncmp>
			35c0: R_ARM_CALL	strncmp
    35c4:	e3500000 	cmp	r0, #0
    35c8:	1a000002 	bne	35d8 <is_lan_search_record_found+0x128>
    35cc:	e59d3004 	ldr	r3, [sp, #4]
    35d0:	e153000a 	cmp	r3, sl
    35d4:	0a000032 	beq	36a4 <is_lan_search_record_found+0x1f4>
    35d8:	e59d3010 	ldr	r3, [sp, #16]
    35dc:	e3530000 	cmp	r3, #0
    35e0:	0a000012 	beq	3630 <is_lan_search_record_found+0x180>
    35e4:	e1a00008 	mov	r0, r8
    35e8:	e1a01009 	mov	r1, r9
    35ec:	e3a02014 	mov	r2, #20
    35f0:	ebfffffe 	bl	0 <strncmp>
			35f0: R_ARM_CALL	strncmp
    35f4:	e1d832b6 	ldrh	r3, [r8, #38]	; 0x26
    35f8:	e58d3004 	str	r3, [sp, #4]
    35fc:	e3500000 	cmp	r0, #0
    3600:	1a00000a 	bne	3630 <is_lan_search_record_found+0x180>
    3604:	e1a00005 	mov	r0, r5
    3608:	ebfffffe 	bl	0 <strlen>
			3608: R_ARM_CALL	strlen
    360c:	e1a01005 	mov	r1, r5
    3610:	e1a02000 	mov	r2, r0
    3614:	e2880015 	add	r0, r8, #21
    3618:	ebfffffe 	bl	0 <strncmp>
			3618: R_ARM_CALL	strncmp
    361c:	e3500000 	cmp	r0, #0
    3620:	1a000002 	bne	3630 <is_lan_search_record_found+0x180>
    3624:	e59d3004 	ldr	r3, [sp, #4]
    3628:	e153000a 	cmp	r3, sl
    362c:	0a00001c 	beq	36a4 <is_lan_search_record_found+0x1f4>
    3630:	e59d3014 	ldr	r3, [sp, #20]
    3634:	e28440ae 	add	r4, r4, #174	; 0xae
    3638:	e1540003 	cmp	r4, r3
    363c:	e2888058 	add	r8, r8, #88	; 0x58
    3640:	e28770d0 	add	r7, r7, #208	; 0xd0
    3644:	e286602a 	add	r6, r6, #42	; 0x2a
    3648:	0a000018 	beq	36b0 <is_lan_search_record_found+0x200>
    364c:	e59d3008 	ldr	r3, [sp, #8]
    3650:	e3530000 	cmp	r3, #0
    3654:	0affffb4 	beq	352c <is_lan_search_record_found+0x7c>
    3658:	e1a00006 	mov	r0, r6
    365c:	e1a01009 	mov	r1, r9
    3660:	e3a02014 	mov	r2, #20
    3664:	ebfffffe 	bl	0 <strncmp>
			3664: R_ARM_CALL	strncmp
    3668:	e1d632b6 	ldrh	r3, [r6, #38]	; 0x26
    366c:	e58d3004 	str	r3, [sp, #4]
    3670:	e3500000 	cmp	r0, #0
    3674:	1affffac 	bne	352c <is_lan_search_record_found+0x7c>
    3678:	e1a00005 	mov	r0, r5
    367c:	ebfffffe 	bl	0 <strlen>
			367c: R_ARM_CALL	strlen
    3680:	e1a01005 	mov	r1, r5
    3684:	e1a02000 	mov	r2, r0
    3688:	e2860015 	add	r0, r6, #21
    368c:	ebfffffe 	bl	0 <strncmp>
			368c: R_ARM_CALL	strncmp
    3690:	e3500000 	cmp	r0, #0
    3694:	1affffa4 	bne	352c <is_lan_search_record_found+0x7c>
    3698:	e59d3004 	ldr	r3, [sp, #4]
    369c:	e153000a 	cmp	r3, sl
    36a0:	1affffa1 	bne	352c <is_lan_search_record_found+0x7c>
    36a4:	e3a00001 	mov	r0, #1
    36a8:	e28dd01c 	add	sp, sp, #28
    36ac:	e8bd8ff0 	pop	{r4, r5, r6, r7, r8, r9, sl, fp, pc}
    36b0:	e3a00000 	mov	r0, #0
    36b4:	e28dd01c 	add	sp, sp, #28
    36b8:	e8bd8ff0 	pop	{r4, r5, r6, r7, r8, r9, sl, fp, pc}
    36bc:	000021f0 	.word	0x000021f0
			36bc: R_ARM_REL32	.bss
    36c0:	000041d4 	.word	0x000041d4
			36c0: R_ARM_REL32	.bss

000036c4 <_ResponseTimeAck>:
    36c4:	e92d4030 	push	{r4, r5, lr}
    36c8:	e59f506c 	ldr	r5, [pc, #108]	; 373c <_ResponseTimeAck+0x78>
    36cc:	e0800400 	add	r0, r0, r0, lsl #8
    36d0:	e79f5005 	ldr	r5, [pc, r5]
    36d4:	e1a04200 	lsl	r4, r0, #4
    36d8:	e5953000 	ldr	r3, [r5]
    36dc:	e3a02001 	mov	r2, #1
    36e0:	e0833004 	add	r3, r3, r4
    36e4:	e24dd00c 	sub	sp, sp, #12
    36e8:	e5c3229a 	strb	r2, [r3, #666]	; 0x29a
    36ec:	e3a01000 	mov	r1, #0
    36f0:	e1a0000d 	mov	r0, sp
    36f4:	ebfffffe 	bl	0 <gettimeofday>
			36f4: R_ARM_CALL	gettimeofday
    36f8:	e3500000 	cmp	r0, #0
    36fc:	a59d1004 	ldrge	r1, [sp, #4]
    3700:	a59f3038 	ldrge	r3, [pc, #56]	; 3740 <_ResponseTimeAck+0x7c>
    3704:	a1a02fc1 	asrge	r2, r1, #31
    3708:	a0c30391 	smullge	r0, r3, r1, r3
    370c:	a59d1000 	ldrge	r1, [sp]
    3710:	e5950000 	ldr	r0, [r5]
    3714:	a0623343 	rsbge	r3, r2, r3, asr #6
    3718:	a3a02ffa 	movge	r2, #1000	; 0x3e8
    371c:	a0233192 	mlage	r3, r2, r1, r3
    3720:	e0800004 	add	r0, r0, r4
    3724:	e590235c 	ldr	r2, [r0, #860]	; 0x35c
    3728:	b3e03000 	mvnlt	r3, #0
    372c:	e0623003 	rsb	r3, r2, r3
    3730:	e580335c 	str	r3, [r0, #860]	; 0x35c
    3734:	e28dd00c 	add	sp, sp, #12
    3738:	e8bd8030 	pop	{r4, r5, pc}
    373c:	00000064 	.word	0x00000064
			373c: R_ARM_GOT_PREL	gSessionInfo
    3740:	10624dd3 	.word	0x10624dd3

00003744 <_ResponseTimeTest.part.26>:
    3744:	e59f3068 	ldr	r3, [pc, #104]	; 37b4 <_ResponseTimeTest.part.26+0x70>
    3748:	e0800400 	add	r0, r0, r0, lsl #8
    374c:	e79f3003 	ldr	r3, [pc, r3]
    3750:	e92d4010 	push	{r4, lr}
    3754:	e5933000 	ldr	r3, [r3]
    3758:	e24dd008 	sub	sp, sp, #8
    375c:	e0834200 	add	r4, r3, r0, lsl #4
    3760:	e5d4329a 	ldrb	r3, [r4, #666]	; 0x29a
    3764:	e3530002 	cmp	r3, #2
    3768:	0a00000f 	beq	37ac <_ResponseTimeTest.part.26+0x68>
    376c:	e3a03002 	mov	r3, #2
    3770:	e5c4329a 	strb	r3, [r4, #666]	; 0x29a
    3774:	e3a01000 	mov	r1, #0
    3778:	e1a0000d 	mov	r0, sp
    377c:	ebfffffe 	bl	0 <gettimeofday>
			377c: R_ARM_CALL	gettimeofday
    3780:	e3500000 	cmp	r0, #0
    3784:	a59d1004 	ldrge	r1, [sp, #4]
    3788:	a59f3028 	ldrge	r3, [pc, #40]	; 37b8 <_ResponseTimeTest.part.26+0x74>
    378c:	a1a02fc1 	asrge	r2, r1, #31
    3790:	a0c30391 	smullge	r0, r3, r1, r3
    3794:	a59d1000 	ldrge	r1, [sp]
    3798:	a0623343 	rsbge	r3, r2, r3, asr #6
    379c:	a3a02ffa 	movge	r2, #1000	; 0x3e8
    37a0:	a0233192 	mlage	r3, r2, r1, r3
    37a4:	b3e03000 	mvnlt	r3, #0
    37a8:	e584335c 	str	r3, [r4, #860]	; 0x35c
    37ac:	e28dd008 	add	sp, sp, #8
    37b0:	e8bd8010 	pop	{r4, pc}
    37b4:	00000060 	.word	0x00000060
			37b4: R_ARM_GOT_PREL	gSessionInfo
    37b8:	10624dd3 	.word	0x10624dd3

000037bc <TransCodePartial>:
    37bc:	e1530002 	cmp	r3, r2
    37c0:	e92d4ff0 	push	{r4, r5, r6, r7, r8, r9, sl, fp, lr}
    37c4:	81a0b002 	movhi	fp, r2
    37c8:	e24dd024 	sub	sp, sp, #36	; 0x24
    37cc:	e98d0003 	stmib	sp, {r0, r1}
    37d0:	81a0300b 	movhi	r3, fp
    37d4:	8a000001 	bhi	37e0 <TransCodePartial+0x24>
    37d8:	21a0b003 	movcs	fp, r3
    37dc:	3a000090 	bcc	3a24 <TransCodePartial+0x268>
    37e0:	e203300f 	and	r3, r3, #15
    37e4:	e59d6004 	ldr	r6, [sp, #4]
    37e8:	e063b00b 	rsb	fp, r3, fp
    37ec:	e086700b 	add	r7, r6, fp
    37f0:	e1560007 	cmp	r6, r7
    37f4:	e58d300c 	str	r3, [sp, #12]
    37f8:	2a000047 	bcs	391c <TransCodePartial+0x160>
    37fc:	e59f3248 	ldr	r3, [pc, #584]	; 3a4c <TransCodePartial+0x290>
    3800:	e59d2008 	ldr	r2, [sp, #8]
    3804:	e08f3003 	add	r3, pc, r3
    3808:	e8930708 	ldm	r3, {r3, r8, r9, sl}
    380c:	e2825010 	add	r5, r2, #16
    3810:	e58d3000 	str	r3, [sp]
    3814:	e5963000 	ldr	r3, [r6]
    3818:	e59d2000 	ldr	r2, [sp]
    381c:	e1a030e3 	ror	r3, r3, #1
    3820:	e5053010 	str	r3, [r5, #-16]
    3824:	e5960004 	ldr	r0, [r6, #4]
    3828:	e0233002 	eor	r3, r3, r2
    382c:	e1a002e0 	ror	r0, r0, #5
    3830:	e505000c 	str	r0, [r5, #-12]
    3834:	e5962008 	ldr	r2, [r6, #8]
    3838:	e2866010 	add	r6, r6, #16
    383c:	e1a024e2 	ror	r2, r2, #9
    3840:	e5052008 	str	r2, [r5, #-8]
    3844:	e5161004 	ldr	r1, [r6, #-4]
    3848:	e0222009 	eor	r2, r2, r9
    384c:	e02a16e1 	eor	r1, sl, r1, ror #13
    3850:	e201c0ff 	and	ip, r1, #255	; 0xff
    3854:	e1a0e821 	lsr	lr, r1, #16
    3858:	e1a0c80c 	lsl	ip, ip, #16
    385c:	e18ccc0e 	orr	ip, ip, lr, lsl #24
    3860:	e1a0e801 	lsl	lr, r1, #16
    3864:	e0200008 	eor	r0, r0, r8
    3868:	e18cec2e 	orr	lr, ip, lr, lsr #24
    386c:	e202b0ff 	and	fp, r2, #255	; 0xff
    3870:	e1a0c422 	lsr	ip, r2, #8
    3874:	e20114ff 	and	r1, r1, #-16777216	; 0xff000000
    3878:	e1a04400 	lsl	r4, r0, #8
    387c:	e181180b 	orr	r1, r1, fp, lsl #16
    3880:	e20cccff 	and	ip, ip, #65280	; 0xff00
    3884:	e203b4ff 	and	fp, r3, #-16777216	; 0xff000000
    3888:	e1811c22 	orr	r1, r1, r2, lsr #24
    388c:	e18ec00c 	orr	ip, lr, ip
    3890:	e2022cff 	and	r2, r2, #65280	; 0xff00
    3894:	e1a0ec20 	lsr	lr, r0, #24
    3898:	e20448ff 	and	r4, r4, #16711680	; 0xff0000
    389c:	e1844c03 	orr	r4, r4, r3, lsl #24
    38a0:	e18be80e 	orr	lr, fp, lr, lsl #16
    38a4:	e1811002 	orr	r1, r1, r2
    38a8:	e1a0b400 	lsl	fp, r0, #8
    38ac:	e1a02403 	lsl	r2, r3, #8
    38b0:	e1844c22 	orr	r4, r4, r2, lsr #24
    38b4:	e2033cff 	and	r3, r3, #65280	; 0xff00
    38b8:	e20000ff 	and	r0, r0, #255	; 0xff
    38bc:	e18ebc2b 	orr	fp, lr, fp, lsr #24
    38c0:	e1844003 	orr	r4, r4, r3
    38c4:	e18bb400 	orr	fp, fp, r0, lsl #8
    38c8:	e1a0c3ec 	ror	ip, ip, #7
    38cc:	e1a021e1 	ror	r2, r1, #3
    38d0:	e1a035e4 	ror	r3, r4, #11
    38d4:	e1a007eb 	ror	r0, fp, #15
    38d8:	e1570006 	cmp	r7, r6
    38dc:	e505c00c 	str	ip, [r5, #-12]
    38e0:	e5052010 	str	r2, [r5, #-16]
    38e4:	e5053008 	str	r3, [r5, #-8]
    38e8:	e5050004 	str	r0, [r5, #-4]
    38ec:	e2855010 	add	r5, r5, #16
    38f0:	8affffc7 	bhi	3814 <TransCodePartial+0x58>
    38f4:	e59d2004 	ldr	r2, [sp, #4]
    38f8:	e1e03002 	mvn	r3, r2
    38fc:	e0877003 	add	r7, r7, r3
    3900:	e3c7700f 	bic	r7, r7, #15
    3904:	e2877010 	add	r7, r7, #16
    3908:	e0823007 	add	r3, r2, r7
    390c:	e58d3004 	str	r3, [sp, #4]
    3910:	e59d3008 	ldr	r3, [sp, #8]
    3914:	e0833007 	add	r3, r3, r7
    3918:	e58d3008 	str	r3, [sp, #8]
    391c:	e59d300c 	ldr	r3, [sp, #12]
    3920:	e3530000 	cmp	r3, #0
    3924:	028d1010 	addeq	r1, sp, #16
    3928:	0a000013 	beq	397c <TransCodePartial+0x1c0>
    392c:	e59d3004 	ldr	r3, [sp, #4]
    3930:	e59f4118 	ldr	r4, [pc, #280]	; 3a50 <TransCodePartial+0x294>
    3934:	e59d200c 	ldr	r2, [sp, #12]
    3938:	e28d1010 	add	r1, sp, #16
    393c:	e08f4004 	add	r4, pc, r4
    3940:	e0835002 	add	r5, r3, r2
    3944:	e1a0c001 	mov	ip, r1
    3948:	e4d32001 	ldrb	r2, [r3], #1
    394c:	e4d40001 	ldrb	r0, [r4], #1
    3950:	e1530005 	cmp	r3, r5
    3954:	e0222000 	eor	r2, r2, r0
    3958:	e4cc2001 	strb	r2, [ip], #1
    395c:	1afffff9 	bne	3948 <TransCodePartial+0x18c>
    3960:	e59d300c 	ldr	r3, [sp, #12]
    3964:	e3530004 	cmp	r3, #4
    3968:	0a000022 	beq	39f8 <TransCodePartial+0x23c>
    396c:	e3530008 	cmp	r3, #8
    3970:	0a00000d 	beq	39ac <TransCodePartial+0x1f0>
    3974:	e3530002 	cmp	r3, #2
    3978:	0a000004 	beq	3990 <TransCodePartial+0x1d4>
    397c:	e59d0008 	ldr	r0, [sp, #8]
    3980:	e59d200c 	ldr	r2, [sp, #12]
    3984:	ebfffffe 	bl	0 <memcpy>
			3984: R_ARM_CALL	memcpy
    3988:	e28dd024 	add	sp, sp, #36	; 0x24
    398c:	e8bd8ff0 	pop	{r4, r5, r6, r7, r8, r9, sl, fp, pc}
    3990:	e59d1008 	ldr	r1, [sp, #8]
    3994:	e5dd2011 	ldrb	r2, [sp, #17]
    3998:	e5dd3010 	ldrb	r3, [sp, #16]
    399c:	e5c12000 	strb	r2, [r1]
    39a0:	e5c13001 	strb	r3, [r1, #1]
    39a4:	e28dd024 	add	sp, sp, #36	; 0x24
    39a8:	e8bd8ff0 	pop	{r4, r5, r6, r7, r8, r9, sl, fp, pc}
    39ac:	e59d6008 	ldr	r6, [sp, #8]
    39b0:	e5dd5017 	ldrb	r5, [sp, #23]
    39b4:	e5dd4014 	ldrb	r4, [sp, #20]
    39b8:	e5dde013 	ldrb	lr, [sp, #19]
    39bc:	e5ddc012 	ldrb	ip, [sp, #18]
    39c0:	e5dd0011 	ldrb	r0, [sp, #17]
    39c4:	e5dd1016 	ldrb	r1, [sp, #22]
    39c8:	e5dd2015 	ldrb	r2, [sp, #21]
    39cc:	e5dd3010 	ldrb	r3, [sp, #16]
    39d0:	e5c65000 	strb	r5, [r6]
    39d4:	e5c64001 	strb	r4, [r6, #1]
    39d8:	e5c6e002 	strb	lr, [r6, #2]
    39dc:	e5c6c003 	strb	ip, [r6, #3]
    39e0:	e5c60004 	strb	r0, [r6, #4]
    39e4:	e5c61005 	strb	r1, [r6, #5]
    39e8:	e5c62006 	strb	r2, [r6, #6]
    39ec:	e5c63007 	strb	r3, [r6, #7]
    39f0:	e28dd024 	add	sp, sp, #36	; 0x24
    39f4:	e8bd8ff0 	pop	{r4, r5, r6, r7, r8, r9, sl, fp, pc}
    39f8:	e59dc008 	ldr	ip, [sp, #8]
    39fc:	e5dd0012 	ldrb	r0, [sp, #18]
    3a00:	e5dd1013 	ldrb	r1, [sp, #19]
    3a04:	e5dd2010 	ldrb	r2, [sp, #16]
    3a08:	e5dd3011 	ldrb	r3, [sp, #17]
    3a0c:	e5cc0000 	strb	r0, [ip]
    3a10:	e5cc1001 	strb	r1, [ip, #1]
    3a14:	e5cc2002 	strb	r2, [ip, #2]
    3a18:	e5cc3003 	strb	r3, [ip, #3]
    3a1c:	e28dd024 	add	sp, sp, #36	; 0x24
    3a20:	e8bd8ff0 	pop	{r4, r5, r6, r7, r8, r9, sl, fp, pc}
    3a24:	e59d1008 	ldr	r1, [sp, #8]
    3a28:	e0632002 	rsb	r2, r3, r2
    3a2c:	e0810003 	add	r0, r1, r3
    3a30:	e59d1004 	ldr	r1, [sp, #4]
    3a34:	e1a0b003 	mov	fp, r3
    3a38:	e0811003 	add	r1, r1, r3
    3a3c:	e58d3000 	str	r3, [sp]
    3a40:	ebfffffe 	bl	0 <memcpy>
			3a40: R_ARM_CALL	memcpy
    3a44:	e59d3000 	ldr	r3, [sp]
    3a48:	eaffff64 	b	37e0 <TransCodePartial+0x24>
    3a4c:	00000240 	.word	0x00000240
			3a4c: R_ARM_REL32	.LC9
    3a50:	0000010c 	.word	0x0000010c
			3a50: R_ARM_REL32	.LC9

00003a54 <IOTC_Handler_MSG_OTHER.isra.20.part.21>:
    3a54:	e59f2034 	ldr	r2, [pc, #52]	; 3a90 <IOTC_Handler_MSG_OTHER.isra.20.part.21+0x3c>
    3a58:	e59f3034 	ldr	r3, [pc, #52]	; 3a94 <IOTC_Handler_MSG_OTHER.isra.20.part.21+0x40>
    3a5c:	e08f2002 	add	r2, pc, r2
    3a60:	e08f3003 	add	r3, pc, r3
    3a64:	e5521660 	ldrb	r1, [r2, #-1632]	; 0xfffff9a0
    3a68:	e3a02000 	mov	r2, #0
    3a6c:	e5c32006 	strb	r2, [r3, #6]
    3a70:	e59f3020 	ldr	r3, [pc, #32]	; 3a98 <IOTC_Handler_MSG_OTHER.isra.20.part.21+0x44>
    3a74:	e1510002 	cmp	r1, r2
    3a78:	03a02001 	moveq	r2, #1
    3a7c:	13a0200a 	movne	r2, #10
    3a80:	e08f3003 	add	r3, pc, r3
    3a84:	e5832100 	str	r2, [r3, #256]	; 0x100
    3a88:	e5032764 	str	r2, [r3, #-1892]	; 0xfffff89c
    3a8c:	e12fff1e 	bx	lr
    3a90:	00002024 	.word	0x00002024
			3a90: R_ARM_REL32	.bss
    3a94:	0000002c 	.word	0x0000002c
			3a94: R_ARM_REL32	.data
    3a98:	00002008 	.word	0x00002008
			3a98: R_ARM_REL32	.bss

00003a9c <update_lan_search_record.constprop.127>:
    3a9c:	e59fc1ec 	ldr	ip, [pc, #492]	; 3c90 <update_lan_search_record.constprop.127+0x1f4>
    3aa0:	e92d41f0 	push	{r4, r5, r6, r7, r8, lr}
    3aa4:	e08fc00c 	add	ip, pc, ip
    3aa8:	e51c4ec4 	ldr	r4, [ip, #-3780]	; 0xfffff13c
    3aac:	e24dd008 	sub	sp, sp, #8
    3ab0:	e3540000 	cmp	r4, #0
    3ab4:	e1a05001 	mov	r5, r1
    3ab8:	e1a06002 	mov	r6, r2
    3abc:	0a00001b 	beq	3b30 <update_lan_search_record.constprop.127+0x94>
    3ac0:	e59f21cc 	ldr	r2, [pc, #460]	; 3c94 <update_lan_search_record.constprop.127+0x1f8>
    3ac4:	e3a0302a 	mov	r3, #42	; 0x2a
    3ac8:	e08f2002 	add	r2, pc, r2
    3acc:	e5122690 	ldr	r2, [r2, #-1680]	; 0xfffff970
    3ad0:	e1a01000 	mov	r1, r0
    3ad4:	e0244293 	mla	r4, r3, r2, r4
    3ad8:	e3a07000 	mov	r7, #0
    3adc:	e3a02014 	mov	r2, #20
    3ae0:	e1a00004 	mov	r0, r4
    3ae4:	ebfffffe 	bl	0 <strncpy>
			3ae4: R_ARM_CALL	strncpy
    3ae8:	e5c47014 	strb	r7, [r4, #20]
    3aec:	e1a00005 	mov	r0, r5
    3af0:	ebfffffe 	bl	0 <strlen>
			3af0: R_ARM_CALL	strlen
    3af4:	e1a01005 	mov	r1, r5
    3af8:	e1a02000 	mov	r2, r0
    3afc:	e350000e 	cmp	r0, #14
    3b00:	e2822001 	add	r2, r2, #1
    3b04:	e2840015 	add	r0, r4, #21
    3b08:	9a000006 	bls	3b28 <update_lan_search_record.constprop.127+0x8c>
    3b0c:	ebfffffe 	bl	0 <memcpy>
			3b0c: R_ARM_CALL	memcpy
    3b10:	e5c47025 	strb	r7, [r4, #37]	; 0x25
    3b14:	e1a03426 	lsr	r3, r6, #8
    3b18:	e1836406 	orr	r6, r3, r6, lsl #8
    3b1c:	e1c462b6 	strh	r6, [r4, #38]	; 0x26
    3b20:	e28dd008 	add	sp, sp, #8
    3b24:	e8bd81f0 	pop	{r4, r5, r6, r7, r8, pc}
    3b28:	ebfffffe 	bl	0 <memcpy>
			3b28: R_ARM_CALL	memcpy
    3b2c:	eafffff8 	b	3b14 <update_lan_search_record.constprop.127+0x78>
    3b30:	e51c7ec0 	ldr	r7, [ip, #-3776]	; 0xfffff140
    3b34:	e1a08003 	mov	r8, r3
    3b38:	e3570000 	cmp	r7, #0
    3b3c:	0a00001b 	beq	3bb0 <update_lan_search_record.constprop.127+0x114>
    3b40:	e59f2150 	ldr	r2, [pc, #336]	; 3c98 <update_lan_search_record.constprop.127+0x1fc>
    3b44:	e3a030ae 	mov	r3, #174	; 0xae
    3b48:	e08f2002 	add	r2, pc, r2
    3b4c:	e5122690 	ldr	r2, [r2, #-1680]	; 0xfffff970
    3b50:	e1a01000 	mov	r1, r0
    3b54:	e0277293 	mla	r7, r3, r2, r7
    3b58:	e3a02014 	mov	r2, #20
    3b5c:	e1a00007 	mov	r0, r7
    3b60:	ebfffffe 	bl	0 <strncpy>
			3b60: R_ARM_CALL	strncpy
    3b64:	e5c74014 	strb	r4, [r7, #20]
    3b68:	e1a00005 	mov	r0, r5
    3b6c:	ebfffffe 	bl	0 <strlen>
			3b6c: R_ARM_CALL	strlen
    3b70:	e1a03005 	mov	r3, r5
    3b74:	e2872026 	add	r2, r7, #38	; 0x26
    3b78:	e3a01010 	mov	r1, #16
    3b7c:	e58d6004 	str	r6, [sp, #4]
    3b80:	e58d0000 	str	r0, [sp]
    3b84:	e2870015 	add	r0, r7, #21
    3b88:	ebfff7cb 	bl	1abc <update_lan_search_record_ip_port>
    3b8c:	e1a00008 	mov	r0, r8
    3b90:	ebfffffe 	bl	0 <strlen>
			3b90: R_ARM_CALL	strlen
    3b94:	e1a02008 	mov	r2, r8
    3b98:	e3a01084 	mov	r1, #132	; 0x84
    3b9c:	e1a03000 	mov	r3, r0
    3ba0:	e2870028 	add	r0, r7, #40	; 0x28
    3ba4:	e28dd008 	add	sp, sp, #8
    3ba8:	e8bd41f0 	pop	{r4, r5, r6, r7, r8, lr}
    3bac:	eafff7d9 	b	1b18 <update_lan_search_record_device_name>
    3bb0:	e59f30e4 	ldr	r3, [pc, #228]	; 3c9c <update_lan_search_record.constprop.127+0x200>
    3bb4:	e08f3003 	add	r3, pc, r3
    3bb8:	e5134698 	ldr	r4, [r3, #-1688]	; 0xfffff968
    3bbc:	e3540000 	cmp	r4, #0
    3bc0:	0a000017 	beq	3c24 <update_lan_search_record.constprop.127+0x188>
    3bc4:	e5132690 	ldr	r2, [r3, #-1680]	; 0xfffff970
    3bc8:	e3a030d0 	mov	r3, #208	; 0xd0
    3bcc:	e0244293 	mla	r4, r3, r2, r4
    3bd0:	e1a01000 	mov	r1, r0
    3bd4:	e3a02014 	mov	r2, #20
    3bd8:	e1a00004 	mov	r0, r4
    3bdc:	ebfffffe 	bl	0 <strncpy>
			3bdc: R_ARM_CALL	strncpy
    3be0:	e5c47014 	strb	r7, [r4, #20]
    3be4:	e1a00005 	mov	r0, r5
    3be8:	ebfffffe 	bl	0 <strlen>
			3be8: R_ARM_CALL	strlen
    3bec:	e1a03005 	mov	r3, r5
    3bf0:	e2842044 	add	r2, r4, #68	; 0x44
    3bf4:	e3a0102e 	mov	r1, #46	; 0x2e
    3bf8:	e58d6004 	str	r6, [sp, #4]
    3bfc:	e58d0000 	str	r0, [sp]
    3c00:	e2840015 	add	r0, r4, #21
    3c04:	ebfff7ac 	bl	1abc <update_lan_search_record_ip_port>
    3c08:	e1a00008 	mov	r0, r8
    3c0c:	ebfffffe 	bl	0 <strlen>
			3c0c: R_ARM_CALL	strlen
    3c10:	e1a02008 	mov	r2, r8
    3c14:	e3a01084 	mov	r1, #132	; 0x84
    3c18:	e1a03000 	mov	r3, r0
    3c1c:	e2840046 	add	r0, r4, #70	; 0x46
    3c20:	eaffffdf 	b	3ba4 <update_lan_search_record.constprop.127+0x108>
    3c24:	e51c2ebc 	ldr	r2, [ip, #-3772]	; 0xfffff144
    3c28:	e3520000 	cmp	r2, #0
    3c2c:	0affffbb 	beq	3b20 <update_lan_search_record.constprop.127+0x84>
    3c30:	e5137690 	ldr	r7, [r3, #-1680]	; 0xfffff970
    3c34:	e3a03058 	mov	r3, #88	; 0x58
    3c38:	e0272793 	mla	r7, r3, r7, r2
    3c3c:	e1a01000 	mov	r1, r0
    3c40:	e3a02014 	mov	r2, #20
    3c44:	e1a00007 	mov	r0, r7
    3c48:	ebfffffe 	bl	0 <strncpy>
			3c48: R_ARM_CALL	strncpy
    3c4c:	e5c74014 	strb	r4, [r7, #20]
    3c50:	e1a00005 	mov	r0, r5
    3c54:	ebfffffe 	bl	0 <strlen>
			3c54: R_ARM_CALL	strlen
    3c58:	e1a03005 	mov	r3, r5
    3c5c:	e2872026 	add	r2, r7, #38	; 0x26
    3c60:	e3a01011 	mov	r1, #17
    3c64:	e58d6004 	str	r6, [sp, #4]
    3c68:	e58d0000 	str	r0, [sp]
    3c6c:	e2870015 	add	r0, r7, #21
    3c70:	ebfff791 	bl	1abc <update_lan_search_record_ip_port>
    3c74:	e1a00008 	mov	r0, r8
    3c78:	ebfffffe 	bl	0 <strlen>
			3c78: R_ARM_CALL	strlen
    3c7c:	e1a02008 	mov	r2, r8
    3c80:	e3a01018 	mov	r1, #24
    3c84:	e1a03000 	mov	r3, r0
    3c88:	e2870028 	add	r0, r7, #40	; 0x28
    3c8c:	eaffffc4 	b	3ba4 <update_lan_search_record.constprop.127+0x108>
    3c90:	000041d4 	.word	0x000041d4
			3c90: R_ARM_REL32	.bss
    3c94:	000021bc 	.word	0x000021bc
			3c94: R_ARM_REL32	.bss
    3c98:	00002140 	.word	0x00002140
			3c98: R_ARM_REL32	.bss
    3c9c:	000020d8 	.word	0x000020d8
			3c9c: R_ARM_REL32	.bss

00003ca0 <_UpdateLanDeviceList.part.36.constprop.126>:
    3ca0:	e92d43f8 	push	{r3, r4, r5, r6, r7, r8, r9, lr}
    3ca4:	e59f3108 	ldr	r3, [pc, #264]	; 3db4 <_UpdateLanDeviceList.part.36.constprop.126+0x114>
    3ca8:	e1a07000 	mov	r7, r0
    3cac:	e08f3003 	add	r3, pc, r3
    3cb0:	e5136690 	ldr	r6, [r3, #-1680]	; 0xfffff970
    3cb4:	e1a09001 	mov	r9, r1
    3cb8:	e3560000 	cmp	r6, #0
    3cbc:	e1a08002 	mov	r8, r2
    3cc0:	da00002f 	ble	3d84 <_UpdateLanDeviceList.part.36.constprop.126+0xe4>
    3cc4:	e59f30ec 	ldr	r3, [pc, #236]	; 3db8 <_UpdateLanDeviceList.part.36.constprop.126+0x118>
    3cc8:	e3a05000 	mov	r5, #0
    3ccc:	e08f3003 	add	r3, pc, r3
    3cd0:	e5134ebc 	ldr	r4, [r3, #-3772]	; 0xfffff144
    3cd4:	e1a00004 	mov	r0, r4
    3cd8:	e1a01007 	mov	r1, r7
    3cdc:	e3a02014 	mov	r2, #20
    3ce0:	ebfffffe 	bl	0 <memcmp>
			3ce0: R_ARM_CALL	memcmp
    3ce4:	e2855001 	add	r5, r5, #1
    3ce8:	e2844058 	add	r4, r4, #88	; 0x58
    3cec:	e3500000 	cmp	r0, #0
    3cf0:	08bd83f8 	popeq	{r3, r4, r5, r6, r7, r8, r9, pc}
    3cf4:	e1550006 	cmp	r5, r6
    3cf8:	1afffff5 	bne	3cd4 <_UpdateLanDeviceList.part.36.constprop.126+0x34>
    3cfc:	e59f40b8 	ldr	r4, [pc, #184]	; 3dbc <_UpdateLanDeviceList.part.36.constprop.126+0x11c>
    3d00:	e08f4004 	add	r4, pc, r4
    3d04:	e5143eb8 	ldr	r3, [r4, #-3768]	; 0xfffff148
    3d08:	e1530006 	cmp	r3, r6
    3d0c:	0a000009 	beq	3d38 <_UpdateLanDeviceList.part.36.constprop.126+0x98>
    3d10:	e3a03000 	mov	r3, #0
    3d14:	e1a00007 	mov	r0, r7
    3d18:	e1a01009 	mov	r1, r9
    3d1c:	e1a02008 	mov	r2, r8
    3d20:	ebffff5d 	bl	3a9c <update_lan_search_record.constprop.127>
    3d24:	e59f3094 	ldr	r3, [pc, #148]	; 3dc0 <_UpdateLanDeviceList.part.36.constprop.126+0x120>
    3d28:	e2866001 	add	r6, r6, #1
    3d2c:	e08f3003 	add	r3, pc, r3
    3d30:	e5036690 	str	r6, [r3, #-1680]	; 0xfffff970
    3d34:	e8bd83f8 	pop	{r3, r4, r5, r6, r7, r8, r9, pc}
    3d38:	e5145ebc 	ldr	r5, [r4, #-3772]	; 0xfffff144
    3d3c:	e3a010b0 	mov	r1, #176	; 0xb0
    3d40:	e1a00005 	mov	r0, r5
    3d44:	e0010196 	mul	r1, r6, r1
    3d48:	ebfffffe 	bl	0 <realloc>
			3d48: R_ARM_CALL	realloc
    3d4c:	e3500000 	cmp	r0, #0
    3d50:	11a03086 	lslne	r3, r6, #1
    3d54:	15040ebc 	strne	r0, [r4, #-3772]	; 0xfffff144
    3d58:	15043eb8 	strne	r3, [r4, #-3768]	; 0xfffff148
    3d5c:	1affffeb 	bne	3d10 <_UpdateLanDeviceList.part.36.constprop.126+0x70>
    3d60:	e3550000 	cmp	r5, #0
    3d64:	0a000001 	beq	3d70 <_UpdateLanDeviceList.part.36.constprop.126+0xd0>
    3d68:	e1a00005 	mov	r0, r5
    3d6c:	ebfffffe 	bl	0 <free>
			3d6c: R_ARM_CALL	free
    3d70:	e59f304c 	ldr	r3, [pc, #76]	; 3dc4 <_UpdateLanDeviceList.part.36.constprop.126+0x124>
    3d74:	e3a02000 	mov	r2, #0
    3d78:	e08f3003 	add	r3, pc, r3
    3d7c:	e5032ebc 	str	r2, [r3, #-3772]	; 0xfffff144
    3d80:	e8bd83f8 	pop	{r3, r4, r5, r6, r7, r8, r9, pc}
    3d84:	1affffdc 	bne	3cfc <_UpdateLanDeviceList.part.36.constprop.126+0x5c>
    3d88:	e3a00058 	mov	r0, #88	; 0x58
    3d8c:	e3a01008 	mov	r1, #8
    3d90:	ebfffffe 	bl	0 <calloc>
			3d90: R_ARM_CALL	calloc
    3d94:	e59f302c 	ldr	r3, [pc, #44]	; 3dc8 <_UpdateLanDeviceList.part.36.constprop.126+0x128>
    3d98:	e08f3003 	add	r3, pc, r3
    3d9c:	e3500000 	cmp	r0, #0
    3da0:	e5030ebc 	str	r0, [r3, #-3772]	; 0xfffff144
    3da4:	08bd83f8 	popeq	{r3, r4, r5, r6, r7, r8, r9, pc}
    3da8:	e3a02008 	mov	r2, #8
    3dac:	e5032eb8 	str	r2, [r3, #-3768]	; 0xfffff148
    3db0:	eaffffd6 	b	3d10 <_UpdateLanDeviceList.part.36.constprop.126+0x70>
    3db4:	000020f8 	.word	0x000020f8
			3db4: R_ARM_REL32	.bss
    3db8:	000040d4 	.word	0x000040d4
			3db8: R_ARM_REL32	.bss
    3dbc:	000040a4 	.word	0x000040a4
			3dbc: R_ARM_REL32	.bss
    3dc0:	00002084 	.word	0x00002084
			3dc0: R_ARM_REL32	.bss
    3dc4:	00004034 	.word	0x00004034
			3dc4: R_ARM_REL32	.bss
    3dc8:	00004018 	.word	0x00004018
			3dc8: R_ARM_REL32	.bss

00003dcc <UpdateLanSearchInfoList>:
    3dcc:	e92d4ff0 	push	{r4, r5, r6, r7, r8, r9, sl, fp, lr}
    3dd0:	e24dd03c 	sub	sp, sp, #60	; 0x3c
    3dd4:	e28d4008 	add	r4, sp, #8
    3dd8:	e3a0c000 	mov	ip, #0
    3ddc:	e1a06000 	mov	r6, r0
    3de0:	e1a00004 	mov	r0, r4
    3de4:	e1a05002 	mov	r5, r2
    3de8:	e1a07003 	mov	r7, r3
    3dec:	e58dc008 	str	ip, [sp, #8]
    3df0:	e58dc00c 	str	ip, [sp, #12]
    3df4:	e58dc010 	str	ip, [sp, #16]
    3df8:	e58dc014 	str	ip, [sp, #20]
    3dfc:	e58dc018 	str	ip, [sp, #24]
    3e00:	e58dc01c 	str	ip, [sp, #28]
    3e04:	e58dc020 	str	ip, [sp, #32]
    3e08:	e58dc024 	str	ip, [sp, #36]	; 0x24
    3e0c:	e58dc028 	str	ip, [sp, #40]	; 0x28
    3e10:	e58dc02c 	str	ip, [sp, #44]	; 0x2c
    3e14:	e58dc030 	str	ip, [sp, #48]	; 0x30
    3e18:	e1cdc3b4 	strh	ip, [sp, #52]	; 0x34
    3e1c:	e1a08001 	mov	r8, r1
    3e20:	ebfffffe 	bl	0 <strcpy>
			3e20: R_ARM_CALL	strcpy
    3e24:	e59f31ec 	ldr	r3, [pc, #492]	; 4018 <UpdateLanSearchInfoList+0x24c>
    3e28:	e08f3003 	add	r3, pc, r3
    3e2c:	e5132ec4 	ldr	r2, [r3, #-3780]	; 0xfffff13c
    3e30:	e3520000 	cmp	r2, #0
    3e34:	0a000050 	beq	3f7c <UpdateLanSearchInfoList+0x1b0>
    3e38:	e1a00004 	mov	r0, r4
    3e3c:	ebfffffe 	bl	0 <iotc_convert_to_IPv4_addr>
			3e3c: R_ARM_CALL	iotc_convert_to_IPv4_addr
    3e40:	e3500001 	cmp	r0, #1
    3e44:	0a000004 	beq	3e5c <UpdateLanSearchInfoList+0x90>
    3e48:	e59f31cc 	ldr	r3, [pc, #460]	; 401c <UpdateLanSearchInfoList+0x250>
    3e4c:	e08f3003 	add	r3, pc, r3
    3e50:	e5133eb4 	ldr	r3, [r3, #-3764]	; 0xfffff14c
    3e54:	e3530000 	cmp	r3, #0
    3e58:	1a000001 	bne	3e64 <UpdateLanSearchInfoList+0x98>
    3e5c:	e28dd03c 	add	sp, sp, #60	; 0x3c
    3e60:	e8bd8ff0 	pop	{r4, r5, r6, r7, r8, r9, sl, fp, pc}
    3e64:	e59f31b4 	ldr	r3, [pc, #436]	; 4020 <UpdateLanSearchInfoList+0x254>
    3e68:	e08f3003 	add	r3, pc, r3
    3e6c:	e5132690 	ldr	r2, [r3, #-1680]	; 0xfffff970
    3e70:	e5133694 	ldr	r3, [r3, #-1684]	; 0xfffff96c
    3e74:	e1520003 	cmp	r2, r3
    3e78:	aafffff7 	bge	3e5c <UpdateLanSearchInfoList+0x90>
    3e7c:	e1a00006 	mov	r0, r6
    3e80:	e1a01004 	mov	r1, r4
    3e84:	e1a02005 	mov	r2, r5
    3e88:	ebfffd88 	bl	34b0 <is_lan_search_record_found>
    3e8c:	e3500000 	cmp	r0, #0
    3e90:	1afffff1 	bne	3e5c <UpdateLanSearchInfoList+0x90>
    3e94:	e1a01004 	mov	r1, r4
    3e98:	e1a00006 	mov	r0, r6
    3e9c:	e1a02005 	mov	r2, r5
    3ea0:	e1a03007 	mov	r3, r7
    3ea4:	ebfffefc 	bl	3a9c <update_lan_search_record.constprop.127>
    3ea8:	e59f4174 	ldr	r4, [pc, #372]	; 4024 <UpdateLanSearchInfoList+0x258>
    3eac:	e08f4004 	add	r4, pc, r4
    3eb0:	e5143698 	ldr	r3, [r4, #-1688]	; 0xfffff968
    3eb4:	e3530000 	cmp	r3, #0
    3eb8:	0a000029 	beq	3f64 <UpdateLanSearchInfoList+0x198>
    3ebc:	e2449e69 	sub	r9, r4, #1680	; 0x690
    3ec0:	e249900c 	sub	r9, r9, #12
    3ec4:	e1a00009 	mov	r0, r9
    3ec8:	ebfffffe 	bl	0 <pthread_mutex_lock>
			3ec8: R_ARM_CALL	pthread_mutex_lock
    3ecc:	e514a690 	ldr	sl, [r4, #-1680]	; 0xfffff970
    3ed0:	e5143694 	ldr	r3, [r4, #-1684]	; 0xfffff96c
    3ed4:	e15a0003 	cmp	sl, r3
    3ed8:	0a000031 	beq	3fa4 <UpdateLanSearchInfoList+0x1d8>
    3edc:	e1a00006 	mov	r0, r6
    3ee0:	e1a01008 	mov	r1, r8
    3ee4:	e1a02005 	mov	r2, r5
    3ee8:	ebfffd70 	bl	34b0 <is_lan_search_record_found>
    3eec:	e2509000 	subs	r9, r0, #0
    3ef0:	1a000025 	bne	3f8c <UpdateLanSearchInfoList+0x1c0>
    3ef4:	e1a02005 	mov	r2, r5
    3ef8:	e1a00006 	mov	r0, r6
    3efc:	e1a01008 	mov	r1, r8
    3f00:	e1a03007 	mov	r3, r7
    3f04:	e59f511c 	ldr	r5, [pc, #284]	; 4028 <UpdateLanSearchInfoList+0x25c>
    3f08:	ebfffee3 	bl	3a9c <update_lan_search_record.constprop.127>
    3f0c:	e59f3118 	ldr	r3, [pc, #280]	; 402c <UpdateLanSearchInfoList+0x260>
    3f10:	e08f5005 	add	r5, pc, r5
    3f14:	e5150698 	ldr	r0, [r5, #-1688]	; 0xfffff968
    3f18:	e79f3003 	ldr	r3, [pc, r3]
    3f1c:	e3a040d0 	mov	r4, #208	; 0xd0
    3f20:	e0220a94 	mla	r2, r4, sl, r0
    3f24:	e5933000 	ldr	r3, [r3]
    3f28:	e3a01001 	mov	r1, #1
    3f2c:	e3530000 	cmp	r3, #0
    3f30:	e58210cc 	str	r1, [r2, #204]	; 0xcc
    3f34:	0a000005 	beq	3f50 <UpdateLanSearchInfoList+0x184>
    3f38:	e08a1001 	add	r1, sl, r1
    3f3c:	e12fff33 	blx	r3
    3f40:	e5152690 	ldr	r2, [r5, #-1680]	; 0xfffff970
    3f44:	e5153698 	ldr	r3, [r5, #-1688]	; 0xfffff968
    3f48:	e0243492 	mla	r4, r2, r4, r3
    3f4c:	e58490cc 	str	r9, [r4, #204]	; 0xcc
    3f50:	e59f00d8 	ldr	r0, [pc, #216]	; 4030 <UpdateLanSearchInfoList+0x264>
    3f54:	e08f0000 	add	r0, pc, r0
    3f58:	e2400e69 	sub	r0, r0, #1680	; 0x690
    3f5c:	e240000c 	sub	r0, r0, #12
    3f60:	ebfffffe 	bl	0 <pthread_mutex_unlock>
			3f60: R_ARM_CALL	pthread_mutex_unlock
    3f64:	e59f20c8 	ldr	r2, [pc, #200]	; 4034 <UpdateLanSearchInfoList+0x268>
    3f68:	e08f2002 	add	r2, pc, r2
    3f6c:	e5123690 	ldr	r3, [r2, #-1680]	; 0xfffff970
    3f70:	e2833001 	add	r3, r3, #1
    3f74:	e5023690 	str	r3, [r2, #-1680]	; 0xfffff970
    3f78:	eaffffb7 	b	3e5c <UpdateLanSearchInfoList+0x90>
    3f7c:	e5133ec0 	ldr	r3, [r3, #-3776]	; 0xfffff140
    3f80:	e3530000 	cmp	r3, #0
    3f84:	1affffab 	bne	3e38 <UpdateLanSearchInfoList+0x6c>
    3f88:	eaffffc6 	b	3ea8 <UpdateLanSearchInfoList+0xdc>
    3f8c:	e59f00a4 	ldr	r0, [pc, #164]	; 4038 <UpdateLanSearchInfoList+0x26c>
    3f90:	e08f0000 	add	r0, pc, r0
    3f94:	e2400e69 	sub	r0, r0, #1680	; 0x690
    3f98:	e240000c 	sub	r0, r0, #12
    3f9c:	ebfffffe 	bl	0 <pthread_mutex_unlock>
			3f9c: R_ARM_CALL	pthread_mutex_unlock
    3fa0:	eaffffad 	b	3e5c <UpdateLanSearchInfoList+0x90>
    3fa4:	e28ab00a 	add	fp, sl, #10
    3fa8:	e3a030d0 	mov	r3, #208	; 0xd0
    3fac:	e003039b 	mul	r3, fp, r3
    3fb0:	e504b694 	str	fp, [r4, #-1684]	; 0xfffff96c
    3fb4:	e1a00003 	mov	r0, r3
    3fb8:	e58d3004 	str	r3, [sp, #4]
    3fbc:	ebfffffe 	bl	0 <malloc>
			3fbc: R_ARM_CALL	malloc
    3fc0:	e59d3004 	ldr	r3, [sp, #4]
    3fc4:	e250b000 	subs	fp, r0, #0
    3fc8:	0a00000d 	beq	4004 <UpdateLanSearchInfoList+0x238>
    3fcc:	e1a02003 	mov	r2, r3
    3fd0:	e3a01000 	mov	r1, #0
    3fd4:	e58d3004 	str	r3, [sp, #4]
    3fd8:	ebfffffe 	bl	0 <memset>
			3fd8: R_ARM_CALL	memset
    3fdc:	e5149698 	ldr	r9, [r4, #-1688]	; 0xfffff968
    3fe0:	e59d3004 	ldr	r3, [sp, #4]
    3fe4:	e1a01009 	mov	r1, r9
    3fe8:	e1a02003 	mov	r2, r3
    3fec:	e1a0000b 	mov	r0, fp
    3ff0:	ebfffffe 	bl	0 <memcpy>
			3ff0: R_ARM_CALL	memcpy
    3ff4:	e1a00009 	mov	r0, r9
    3ff8:	e504b698 	str	fp, [r4, #-1688]	; 0xfffff968
    3ffc:	ebfffffe 	bl	0 <free>
			3ffc: R_ARM_CALL	free
    4000:	eaffffb5 	b	3edc <UpdateLanSearchInfoList+0x110>
    4004:	e1a00009 	mov	r0, r9
    4008:	ebfffffe 	bl	0 <pthread_mutex_unlock>
			4008: R_ARM_CALL	pthread_mutex_unlock
    400c:	e1a00009 	mov	r0, r9
    4010:	ebfffffe 	bl	0 <pthread_mutex_lock>
			4010: R_ARM_CALL	pthread_mutex_lock
    4014:	eaffff90 	b	3e5c <UpdateLanSearchInfoList+0x90>
    4018:	000041d8 	.word	0x000041d8
			4018: R_ARM_REL32	.bss
    401c:	000041b8 	.word	0x000041b8
			401c: R_ARM_REL32	.bss
    4020:	000021a8 	.word	0x000021a8
			4020: R_ARM_REL32	.bss
    4024:	00002168 	.word	0x00002168
			4024: R_ARM_REL32	.bss
    4028:	00002108 	.word	0x00002108
			4028: R_ARM_REL32	.bss
    402c:	0000010c 	.word	0x0000010c
			402c: R_ARM_GOT_PREL	gSearchDeviceCB
    4030:	000020cc 	.word	0x000020cc
			4030: R_ARM_REL32	.bss
    4034:	000020bc 	.word	0x000020bc
			4034: R_ARM_REL32	.bss
    4038:	00002098 	.word	0x00002098
			4038: R_ARM_REL32	.bss

0000403c <ReverseTransCodePartial>:
    403c:	e1530002 	cmp	r3, r2
    4040:	e92d4ff0 	push	{r4, r5, r6, r7, r8, r9, sl, fp, lr}
    4044:	81a04002 	movhi	r4, r2
    4048:	e24dd024 	sub	sp, sp, #36	; 0x24
    404c:	e58d0004 	str	r0, [sp, #4]
    4050:	e1a08001 	mov	r8, r1
    4054:	81a03004 	movhi	r3, r4
    4058:	8a000001 	bhi	4064 <ReverseTransCodePartial+0x28>
    405c:	21a04003 	movcs	r4, r3
    4060:	3a0000cc 	bcc	4398 <ReverseTransCodePartial+0x35c>
    4064:	e59d9004 	ldr	r9, [sp, #4]
    4068:	e203700f 	and	r7, r3, #15
    406c:	e067a004 	rsb	sl, r7, r4
    4070:	e089a00a 	add	sl, r9, sl
    4074:	e159000a 	cmp	r9, sl
    4078:	2a00004e 	bcs	41b8 <ReverseTransCodePartial+0x17c>
    407c:	e59f3338 	ldr	r3, [pc, #824]	; 43bc <ReverseTransCodePartial+0x380>
    4080:	e2880010 	add	r0, r8, #16
    4084:	e08f3003 	add	r3, pc, r3
    4088:	e5932008 	ldr	r2, [r3, #8]
    408c:	e593b00c 	ldr	fp, [r3, #12]
    4090:	e58d2000 	str	r2, [sp]
    4094:	e5932004 	ldr	r2, [r3, #4]
    4098:	e5933000 	ldr	r3, [r3]
    409c:	e58d7008 	str	r7, [sp, #8]
    40a0:	e58d800c 	str	r8, [sp, #12]
    40a4:	e1a07002 	mov	r7, r2
    40a8:	e1a08003 	mov	r8, r3
    40ac:	e5993000 	ldr	r3, [r9]
    40b0:	e2899010 	add	r9, r9, #16
    40b4:	e1a03ee3 	ror	r3, r3, #29
    40b8:	e5003010 	str	r3, [r0, #-16]
    40bc:	e519300c 	ldr	r3, [r9, #-12]
    40c0:	e550c00d 	ldrb	ip, [r0, #-13]
    40c4:	e1a03ce3 	ror	r3, r3, #25
    40c8:	e500300c 	str	r3, [r0, #-12]
    40cc:	e5193008 	ldr	r3, [r9, #-8]
    40d0:	e5502009 	ldrb	r2, [r0, #-9]
    40d4:	e1a03ae3 	ror	r3, r3, #21
    40d8:	e5003008 	str	r3, [r0, #-8]
    40dc:	e5193004 	ldr	r3, [r9, #-4]
    40e0:	e550400b 	ldrb	r4, [r0, #-11]
    40e4:	e1a038e3 	ror	r3, r3, #17
    40e8:	e20310ff 	and	r1, r3, #255	; 0xff
    40ec:	e1a0e823 	lsr	lr, r3, #16
    40f0:	e1a01801 	lsl	r1, r1, #16
    40f4:	e1a02802 	lsl	r2, r2, #16
    40f8:	e1811c0e 	orr	r1, r1, lr, lsl #24
    40fc:	e1822c0c 	orr	r2, r2, ip, lsl #24
    4100:	e550e008 	ldrb	lr, [r0, #-8]
    4104:	e550c010 	ldrb	ip, [r0, #-16]
    4108:	e20364ff 	and	r6, r3, #-16777216	; 0xff000000
    410c:	e1a04804 	lsl	r4, r4, #16
    4110:	e550500a 	ldrb	r5, [r0, #-10]
    4114:	e186e80e 	orr	lr, r6, lr, lsl #16
    4118:	e184cc0c 	orr	ip, r4, ip, lsl #24
    411c:	e5506005 	ldrb	r6, [r0, #-5]
    4120:	e550400e 	ldrb	r4, [r0, #-14]
    4124:	e1a03803 	lsl	r3, r3, #16
    4128:	e1813c23 	orr	r3, r1, r3, lsr #24
    412c:	e5501006 	ldrb	r1, [r0, #-6]
    4130:	e18cc004 	orr	ip, ip, r4
    4134:	e18ee006 	orr	lr, lr, r6
    4138:	e5504007 	ldrb	r4, [r0, #-7]
    413c:	e550600f 	ldrb	r6, [r0, #-15]
    4140:	e1822005 	orr	r2, r2, r5
    4144:	e550500c 	ldrb	r5, [r0, #-12]
    4148:	e1833401 	orr	r3, r3, r1, lsl #8
    414c:	e59d1000 	ldr	r1, [sp]
    4150:	e18c6406 	orr	r6, ip, r6, lsl #8
    4154:	e18ee404 	orr	lr, lr, r4, lsl #8
    4158:	e1822405 	orr	r2, r2, r5, lsl #8
    415c:	e02ee008 	eor	lr, lr, r8
    4160:	e026c001 	eor	ip, r6, r1
    4164:	e0233007 	eor	r3, r3, r7
    4168:	e022200b 	eor	r2, r2, fp
    416c:	e1a06fee 	ror	r6, lr, #31
    4170:	e1a03de3 	ror	r3, r3, #27
    4174:	e1a029e2 	ror	r2, r2, #19
    4178:	e1a0ebec 	ror	lr, ip, #23
    417c:	e15a0009 	cmp	sl, r9
    4180:	e500300c 	str	r3, [r0, #-12]
    4184:	e5002004 	str	r2, [r0, #-4]
    4188:	e5006010 	str	r6, [r0, #-16]
    418c:	e500e008 	str	lr, [r0, #-8]
    4190:	e2800010 	add	r0, r0, #16
    4194:	8affffc4 	bhi	40ac <ReverseTransCodePartial+0x70>
    4198:	e99d0184 	ldmib	sp, {r2, r7, r8}
    419c:	e1e03002 	mvn	r3, r2
    41a0:	e08aa003 	add	sl, sl, r3
    41a4:	e3caa00f 	bic	sl, sl, #15
    41a8:	e28aa010 	add	sl, sl, #16
    41ac:	e082300a 	add	r3, r2, sl
    41b0:	e088800a 	add	r8, r8, sl
    41b4:	e58d3004 	str	r3, [sp, #4]
    41b8:	e3570004 	cmp	r7, #4
    41bc:	0a00006b 	beq	4370 <ReverseTransCodePartial+0x334>
    41c0:	e3570008 	cmp	r7, #8
    41c4:	0a000057 	beq	4328 <ReverseTransCodePartial+0x2ec>
    41c8:	e3570002 	cmp	r7, #2
    41cc:	0a00004f 	beq	4310 <ReverseTransCodePartial+0x2d4>
    41d0:	e59d1004 	ldr	r1, [sp, #4]
    41d4:	e28d0010 	add	r0, sp, #16
    41d8:	e1a02007 	mov	r2, r7
    41dc:	ebfffffe 	bl	0 <memcpy>
			41dc: R_ARM_CALL	memcpy
    41e0:	e3570000 	cmp	r7, #0
    41e4:	0a000047 	beq	4308 <ReverseTransCodePartial+0x2cc>
    41e8:	e5dd3010 	ldrb	r3, [sp, #16]
    41ec:	e3570001 	cmp	r7, #1
    41f0:	e2233043 	eor	r3, r3, #67	; 0x43
    41f4:	e5c83000 	strb	r3, [r8]
    41f8:	da000042 	ble	4308 <ReverseTransCodePartial+0x2cc>
    41fc:	e5dd3011 	ldrb	r3, [sp, #17]
    4200:	e3570002 	cmp	r7, #2
    4204:	e2233068 	eor	r3, r3, #104	; 0x68
    4208:	e5c83001 	strb	r3, [r8, #1]
    420c:	0a00003d 	beq	4308 <ReverseTransCodePartial+0x2cc>
    4210:	e5dd3012 	ldrb	r3, [sp, #18]
    4214:	e3570003 	cmp	r7, #3
    4218:	e2233061 	eor	r3, r3, #97	; 0x61
    421c:	e5c83002 	strb	r3, [r8, #2]
    4220:	0a000038 	beq	4308 <ReverseTransCodePartial+0x2cc>
    4224:	e5dd3013 	ldrb	r3, [sp, #19]
    4228:	e3570004 	cmp	r7, #4
    422c:	e2233072 	eor	r3, r3, #114	; 0x72
    4230:	e5c83003 	strb	r3, [r8, #3]
    4234:	0a000033 	beq	4308 <ReverseTransCodePartial+0x2cc>
    4238:	e5dd3014 	ldrb	r3, [sp, #20]
    423c:	e3570005 	cmp	r7, #5
    4240:	e223306c 	eor	r3, r3, #108	; 0x6c
    4244:	e5c83004 	strb	r3, [r8, #4]
    4248:	0a00002e 	beq	4308 <ReverseTransCodePartial+0x2cc>
    424c:	e5dd3015 	ldrb	r3, [sp, #21]
    4250:	e3570006 	cmp	r7, #6
    4254:	e2233069 	eor	r3, r3, #105	; 0x69
    4258:	e5c83005 	strb	r3, [r8, #5]
    425c:	0a000029 	beq	4308 <ReverseTransCodePartial+0x2cc>
    4260:	e5dd3016 	ldrb	r3, [sp, #22]
    4264:	e3570007 	cmp	r7, #7
    4268:	e2233065 	eor	r3, r3, #101	; 0x65
    426c:	e5c83006 	strb	r3, [r8, #6]
    4270:	0a000024 	beq	4308 <ReverseTransCodePartial+0x2cc>
    4274:	e5dd3017 	ldrb	r3, [sp, #23]
    4278:	e3570008 	cmp	r7, #8
    427c:	e2233020 	eor	r3, r3, #32
    4280:	e5c83007 	strb	r3, [r8, #7]
    4284:	0a00001f 	beq	4308 <ReverseTransCodePartial+0x2cc>
    4288:	e5dd3018 	ldrb	r3, [sp, #24]
    428c:	e3570009 	cmp	r7, #9
    4290:	e2233069 	eor	r3, r3, #105	; 0x69
    4294:	e5c83008 	strb	r3, [r8, #8]
    4298:	0a00001a 	beq	4308 <ReverseTransCodePartial+0x2cc>
    429c:	e5dd3019 	ldrb	r3, [sp, #25]
    42a0:	e357000a 	cmp	r7, #10
    42a4:	e2233073 	eor	r3, r3, #115	; 0x73
    42a8:	e5c83009 	strb	r3, [r8, #9]
    42ac:	0a000015 	beq	4308 <ReverseTransCodePartial+0x2cc>
    42b0:	e5dd301a 	ldrb	r3, [sp, #26]
    42b4:	e357000b 	cmp	r7, #11
    42b8:	e2233020 	eor	r3, r3, #32
    42bc:	e5c8300a 	strb	r3, [r8, #10]
    42c0:	0a000010 	beq	4308 <ReverseTransCodePartial+0x2cc>
    42c4:	e5dd301b 	ldrb	r3, [sp, #27]
    42c8:	e357000c 	cmp	r7, #12
    42cc:	e2233074 	eor	r3, r3, #116	; 0x74
    42d0:	e5c8300b 	strb	r3, [r8, #11]
    42d4:	0a00000b 	beq	4308 <ReverseTransCodePartial+0x2cc>
    42d8:	e5dd301c 	ldrb	r3, [sp, #28]
    42dc:	e357000d 	cmp	r7, #13
    42e0:	e2233068 	eor	r3, r3, #104	; 0x68
    42e4:	e5c8300c 	strb	r3, [r8, #12]
    42e8:	0a000006 	beq	4308 <ReverseTransCodePartial+0x2cc>
    42ec:	e5dd301d 	ldrb	r3, [sp, #29]
    42f0:	e357000f 	cmp	r7, #15
    42f4:	e2233065 	eor	r3, r3, #101	; 0x65
    42f8:	e5c8300d 	strb	r3, [r8, #13]
    42fc:	05dd301e 	ldrbeq	r3, [sp, #30]
    4300:	02233020 	eoreq	r3, r3, #32
    4304:	05c8300e 	strbeq	r3, [r8, #14]
    4308:	e28dd024 	add	sp, sp, #36	; 0x24
    430c:	e8bd8ff0 	pop	{r4, r5, r6, r7, r8, r9, sl, fp, pc}
    4310:	e59d3004 	ldr	r3, [sp, #4]
    4314:	e5d32001 	ldrb	r2, [r3, #1]
    4318:	e5d33000 	ldrb	r3, [r3]
    431c:	e5cd2010 	strb	r2, [sp, #16]
    4320:	e5cd3011 	strb	r3, [sp, #17]
    4324:	eaffffaf 	b	41e8 <ReverseTransCodePartial+0x1ac>
    4328:	e59d3004 	ldr	r3, [sp, #4]
    432c:	e5d35007 	ldrb	r5, [r3, #7]
    4330:	e5d34004 	ldrb	r4, [r3, #4]
    4334:	e5d3e003 	ldrb	lr, [r3, #3]
    4338:	e5d3c002 	ldrb	ip, [r3, #2]
    433c:	e5d30001 	ldrb	r0, [r3, #1]
    4340:	e5d31006 	ldrb	r1, [r3, #6]
    4344:	e5d32005 	ldrb	r2, [r3, #5]
    4348:	e5d33000 	ldrb	r3, [r3]
    434c:	e5cd5010 	strb	r5, [sp, #16]
    4350:	e5cd4011 	strb	r4, [sp, #17]
    4354:	e5cde012 	strb	lr, [sp, #18]
    4358:	e5cdc013 	strb	ip, [sp, #19]
    435c:	e5cd0014 	strb	r0, [sp, #20]
    4360:	e5cd1015 	strb	r1, [sp, #21]
    4364:	e5cd2016 	strb	r2, [sp, #22]
    4368:	e5cd3017 	strb	r3, [sp, #23]
    436c:	eaffff9d 	b	41e8 <ReverseTransCodePartial+0x1ac>
    4370:	e59d3004 	ldr	r3, [sp, #4]
    4374:	e5d30002 	ldrb	r0, [r3, #2]
    4378:	e5d31003 	ldrb	r1, [r3, #3]
    437c:	e5d32000 	ldrb	r2, [r3]
    4380:	e5d33001 	ldrb	r3, [r3, #1]
    4384:	e5cd0010 	strb	r0, [sp, #16]
    4388:	e5cd1011 	strb	r1, [sp, #17]
    438c:	e5cd2012 	strb	r2, [sp, #18]
    4390:	e5cd3013 	strb	r3, [sp, #19]
    4394:	eaffff93 	b	41e8 <ReverseTransCodePartial+0x1ac>
    4398:	e0810003 	add	r0, r1, r3
    439c:	e59d1004 	ldr	r1, [sp, #4]
    43a0:	e0632002 	rsb	r2, r3, r2
    43a4:	e0811003 	add	r1, r1, r3
    43a8:	e1a04003 	mov	r4, r3
    43ac:	e58d3000 	str	r3, [sp]
    43b0:	ebfffffe 	bl	0 <memcpy>
			43b0: R_ARM_CALL	memcpy
    43b4:	e59d3000 	ldr	r3, [sp]
    43b8:	eaffff29 	b	4064 <ReverseTransCodePartial+0x28>
    43bc:	00000330 	.word	0x00000330
			43bc: R_ARM_REL32	.LC9

000043c0 <IOTC_TCPConnectToServerSetupFailCB>:
    43c0:	e59f3078 	ldr	r3, [pc, #120]	; 4440 <IOTC_TCPConnectToServerSetupFailCB+0x80>
    43c4:	e08f3003 	add	r3, pc, r3
    43c8:	e5933000 	ldr	r3, [r3]
    43cc:	e3530000 	cmp	r3, #0
    43d0:	012fff1e 	bxeq	lr
    43d4:	e92d4010 	push	{r4, lr}
    43d8:	e1a04002 	mov	r4, r2
    43dc:	e5932000 	ldr	r2, [r3]
    43e0:	e1a01000 	mov	r1, r0
    43e4:	e592200c 	ldr	r2, [r2, #12]
    43e8:	e1a00003 	mov	r0, r3
    43ec:	e12fff32 	blx	r2
    43f0:	e3540000 	cmp	r4, #0
    43f4:	0a000001 	beq	4400 <IOTC_TCPConnectToServerSetupFailCB+0x40>
    43f8:	e1a00004 	mov	r0, r4
    43fc:	ebfffffe 	bl	0 <free>
			43fc: R_ARM_CALL	free
    4400:	e59f203c 	ldr	r2, [pc, #60]	; 4444 <IOTC_TCPConnectToServerSetupFailCB+0x84>
    4404:	e08f2002 	add	r2, pc, r2
    4408:	e5123ed8 	ldr	r3, [r2, #-3800]	; 0xfffff128
    440c:	e5121ed4 	ldr	r1, [r2, #-3796]	; 0xfffff12c
    4410:	e2433001 	sub	r3, r3, #1
    4414:	e3530000 	cmp	r3, #0
    4418:	03510001 	cmpeq	r1, #1
    441c:	e5023ed8 	str	r3, [r2, #-3800]	; 0xfffff128
    4420:	18bd8010 	popne	{r4, pc}
    4424:	e59f301c 	ldr	r3, [pc, #28]	; 4448 <IOTC_TCPConnectToServerSetupFailCB+0x88>
    4428:	e08f3003 	add	r3, pc, r3
    442c:	e513367c 	ldr	r3, [r3, #-1660]	; 0xfffff984
    4430:	e3530000 	cmp	r3, #0
    4434:	18bd8010 	popne	{r4, pc}
    4438:	e8bd4010 	pop	{r4, lr}
    443c:	eafff918 	b	28a4 <EndOneTCPConnServerTask.part.25>
    4440:	00000074 	.word	0x00000074
			4440: R_ARM_REL32	.bss
    4444:	00004028 	.word	0x00004028
			4444: R_ARM_REL32	.bss
    4448:	00002010 	.word	0x00002010
			4448: R_ARM_REL32	.bss

0000444c <IOTC_TCPConnectToServerSetupSuccCB>:
    444c:	e92d40f0 	push	{r4, r5, r6, r7, lr}
    4450:	e59f5128 	ldr	r5, [pc, #296]	; 4580 <IOTC_TCPConnectToServerSetupSuccCB+0x134>
    4454:	e3a03000 	mov	r3, #0
    4458:	e08f5005 	add	r5, pc, r5
    445c:	e515667c 	ldr	r6, [r5, #-1660]	; 0xfffff984
    4460:	e24dd034 	sub	sp, sp, #52	; 0x34
    4464:	e1560003 	cmp	r6, r3
    4468:	e1a04001 	mov	r4, r1
    446c:	e58d3000 	str	r3, [sp]
    4470:	e58d3004 	str	r3, [sp, #4]
    4474:	e58d3008 	str	r3, [sp, #8]
    4478:	e58d300c 	str	r3, [sp, #12]
    447c:	e58d3010 	str	r3, [sp, #16]
    4480:	e58d3014 	str	r3, [sp, #20]
    4484:	e58d3018 	str	r3, [sp, #24]
    4488:	e58d301c 	str	r3, [sp, #28]
    448c:	e58d3020 	str	r3, [sp, #32]
    4490:	e58d3024 	str	r3, [sp, #36]	; 0x24
    4494:	e58d3028 	str	r3, [sp, #40]	; 0x28
    4498:	e1cd32bc 	strh	r3, [sp, #44]	; 0x2c
    449c:	e1a07000 	mov	r7, r0
    44a0:	0a00001b 	beq	4514 <IOTC_TCPConnectToServerSetupSuccCB+0xc8>
    44a4:	e59f30d8 	ldr	r3, [pc, #216]	; 4584 <IOTC_TCPConnectToServerSetupSuccCB+0x138>
    44a8:	e79f0003 	ldr	r0, [pc, r3]
    44ac:	e3500000 	cmp	r0, #0
    44b0:	0a000003 	beq	44c4 <IOTC_TCPConnectToServerSetupSuccCB+0x78>
    44b4:	e5903000 	ldr	r3, [r0]
    44b8:	e1a01007 	mov	r1, r7
    44bc:	e593300c 	ldr	r3, [r3, #12]
    44c0:	e12fff33 	blx	r3
    44c4:	e3540000 	cmp	r4, #0
    44c8:	0a000001 	beq	44d4 <IOTC_TCPConnectToServerSetupSuccCB+0x88>
    44cc:	e1a00004 	mov	r0, r4
    44d0:	ebfffffe 	bl	0 <free>
			44d0: R_ARM_CALL	free
    44d4:	e59f20ac 	ldr	r2, [pc, #172]	; 4588 <IOTC_TCPConnectToServerSetupSuccCB+0x13c>
    44d8:	e08f2002 	add	r2, pc, r2
    44dc:	e5123ed8 	ldr	r3, [r2, #-3800]	; 0xfffff128
    44e0:	e5121ed4 	ldr	r1, [r2, #-3796]	; 0xfffff12c
    44e4:	e2433001 	sub	r3, r3, #1
    44e8:	e3530000 	cmp	r3, #0
    44ec:	03510001 	cmpeq	r1, #1
    44f0:	e5023ed8 	str	r3, [r2, #-3800]	; 0xfffff128
    44f4:	1a000004 	bne	450c <IOTC_TCPConnectToServerSetupSuccCB+0xc0>
    44f8:	e59f308c 	ldr	r3, [pc, #140]	; 458c <IOTC_TCPConnectToServerSetupSuccCB+0x140>
    44fc:	e08f3003 	add	r3, pc, r3
    4500:	e513367c 	ldr	r3, [r3, #-1660]	; 0xfffff984
    4504:	e3530000 	cmp	r3, #0
    4508:	0a00001a 	beq	4578 <IOTC_TCPConnectToServerSetupSuccCB+0x12c>
    450c:	e28dd034 	add	sp, sp, #52	; 0x34
    4510:	e8bd80f0 	pop	{r4, r5, r6, r7, pc}
    4514:	e5903000 	ldr	r3, [r0]
    4518:	e5933000 	ldr	r3, [r3]
    451c:	e12fff33 	blx	r3
    4520:	e2453e67 	sub	r3, r5, #1648	; 0x670
    4524:	e2433008 	sub	r3, r3, #8
    4528:	e1a00003 	mov	r0, r3
    452c:	e5941000 	ldr	r1, [r4]
    4530:	e3a02010 	mov	r2, #16
    4534:	e505767c 	str	r7, [r5, #-1660]	; 0xfffff984
    4538:	ebfffffe 	bl	0 <memcpy>
			4538: R_ARM_CALL	memcpy
    453c:	e1a0200d 	mov	r2, sp
    4540:	e3a0102e 	mov	r1, #46	; 0x2e
    4544:	ebfffffe 	bl	0 <iotc_sockaddr_to_ip_string>
			4544: R_ARM_CALL	iotc_sockaddr_to_ip_string
    4548:	e5942004 	ldr	r2, [r4, #4]
    454c:	e515067c 	ldr	r0, [r5, #-1660]	; 0xfffff984
    4550:	e3a03001 	mov	r3, #1
    4554:	e5c23572 	strb	r3, [r2, #1394]	; 0x572
    4558:	e5901000 	ldr	r1, [r0]
    455c:	e1a02006 	mov	r2, r6
    4560:	e591c018 	ldr	ip, [r1, #24]
    4564:	e59f1024 	ldr	r1, [pc, #36]	; 4590 <IOTC_TCPConnectToServerSetupSuccCB+0x144>
    4568:	e5053668 	str	r3, [r5, #-1640]	; 0xfffff998
    456c:	e08f1001 	add	r1, pc, r1
    4570:	e12fff3c 	blx	ip
    4574:	eaffffd4 	b	44cc <IOTC_TCPConnectToServerSetupSuccCB+0x80>
    4578:	ebfff8c9 	bl	28a4 <EndOneTCPConnServerTask.part.25>
    457c:	eaffffe2 	b	450c <IOTC_TCPConnectToServerSetupSuccCB+0xc0>
    4580:	00002118 	.word	0x00002118
			4580: R_ARM_REL32	.bss
    4584:	000000d4 	.word	0x000000d4
			4584: R_ARM_REL32	.bss
    4588:	00004098 	.word	0x00004098
			4588: R_ARM_REL32	.bss
    458c:	00002080 	.word	0x00002080
			458c: R_ARM_REL32	.bss
    4590:	ffffee60 	.word	0xffffee60

00004594 <_UpdateUdpServerRelaySuccessStatus>:
    4594:	e92d4070 	push	{r4, r5, r6, lr}
    4598:	e24dd018 	sub	sp, sp, #24
    459c:	e1a04000 	mov	r4, r0
    45a0:	e1a00001 	mov	r0, r1
    45a4:	e1a01002 	mov	r1, r2
    45a8:	e28d2004 	add	r2, sp, #4
    45ac:	ebfffffe 	bl	0 <iotc_netaddr_put_content>
			45ac: R_ARM_CALL	iotc_netaddr_put_content
    45b0:	e2843c07 	add	r3, r4, #1792	; 0x700
    45b4:	e28d0008 	add	r0, sp, #8
    45b8:	e8905001 	ldm	r0, {r0, ip, lr}
    45bc:	e59d5014 	ldr	r5, [sp, #20]
    45c0:	e1dd60b6 	ldrh	r6, [sp, #6]
    45c4:	e2833002 	add	r3, r3, #2
    45c8:	e3a02000 	mov	r2, #0
    45cc:	ea000003 	b	45e0 <_UpdateUdpServerRelaySuccessStatus+0x4c>
    45d0:	e2822001 	add	r2, r2, #1
    45d4:	e3520020 	cmp	r2, #32
    45d8:	e2833040 	add	r3, r3, #64	; 0x40
    45dc:	0a000012 	beq	462c <_UpdateUdpServerRelaySuccessStatus+0x98>
    45e0:	e5931002 	ldr	r1, [r3, #2]
    45e4:	e1510000 	cmp	r1, r0
    45e8:	1afffff8 	bne	45d0 <_UpdateUdpServerRelaySuccessStatus+0x3c>
    45ec:	e5931006 	ldr	r1, [r3, #6]
    45f0:	e15c0001 	cmp	ip, r1
    45f4:	1afffff5 	bne	45d0 <_UpdateUdpServerRelaySuccessStatus+0x3c>
    45f8:	e593100a 	ldr	r1, [r3, #10]
    45fc:	e15e0001 	cmp	lr, r1
    4600:	1afffff2 	bne	45d0 <_UpdateUdpServerRelaySuccessStatus+0x3c>
    4604:	e593100e 	ldr	r1, [r3, #14]
    4608:	e1550001 	cmp	r5, r1
    460c:	1affffef 	bne	45d0 <_UpdateUdpServerRelaySuccessStatus+0x3c>
    4610:	e1d310b0 	ldrh	r1, [r3]
    4614:	e1510006 	cmp	r1, r6
    4618:	1affffec 	bne	45d0 <_UpdateUdpServerRelaySuccessStatus+0x3c>
    461c:	e0842302 	add	r2, r4, r2, lsl #6
    4620:	e5923728 	ldr	r3, [r2, #1832]	; 0x728
    4624:	e3530003 	cmp	r3, #3
    4628:	0a000001 	beq	4634 <_UpdateUdpServerRelaySuccessStatus+0xa0>
    462c:	e28dd018 	add	sp, sp, #24
    4630:	e8bd8070 	pop	{r4, r5, r6, pc}
    4634:	e3a03005 	mov	r3, #5
    4638:	e5823728 	str	r3, [r2, #1832]	; 0x728
    463c:	e28dd018 	add	sp, sp, #24
    4640:	e8bd8070 	pop	{r4, r5, r6, pc}

00004644 <_UpdateTcpServerRelayRequestRStatus>:
    4644:	e92d40f0 	push	{r4, r5, r6, r7, lr}
    4648:	e24dd01c 	sub	sp, sp, #28
    464c:	e1a04000 	mov	r4, r0
    4650:	e1a00001 	mov	r0, r1
    4654:	e1a01002 	mov	r1, r2
    4658:	e28d2004 	add	r2, sp, #4
    465c:	e1a05003 	mov	r5, r3
    4660:	ebfffffe 	bl	0 <iotc_netaddr_put_content>
			4660: R_ARM_CALL	iotc_netaddr_put_content
    4664:	e2842e71 	add	r2, r4, #1808	; 0x710
    4668:	e59dc008 	ldr	ip, [sp, #8]
    466c:	e59d300c 	ldr	r3, [sp, #12]
    4670:	e59de010 	ldr	lr, [sp, #16]
    4674:	e59d6014 	ldr	r6, [sp, #20]
    4678:	e1dd70b6 	ldrh	r7, [sp, #6]
    467c:	e2822006 	add	r2, r2, #6
    4680:	e3a01000 	mov	r1, #0
    4684:	ea000003 	b	4698 <_UpdateTcpServerRelayRequestRStatus+0x54>
    4688:	e2811001 	add	r1, r1, #1
    468c:	e3510020 	cmp	r1, #32
    4690:	e2822040 	add	r2, r2, #64	; 0x40
    4694:	0a00001f 	beq	4718 <_UpdateTcpServerRelayRequestRStatus+0xd4>
    4698:	e5920002 	ldr	r0, [r2, #2]
    469c:	e150000c 	cmp	r0, ip
    46a0:	1afffff8 	bne	4688 <_UpdateTcpServerRelayRequestRStatus+0x44>
    46a4:	e5920006 	ldr	r0, [r2, #6]
    46a8:	e1530000 	cmp	r3, r0
    46ac:	1afffff5 	bne	4688 <_UpdateTcpServerRelayRequestRStatus+0x44>
    46b0:	e592000a 	ldr	r0, [r2, #10]
    46b4:	e15e0000 	cmp	lr, r0
    46b8:	1afffff2 	bne	4688 <_UpdateTcpServerRelayRequestRStatus+0x44>
    46bc:	e592000e 	ldr	r0, [r2, #14]
    46c0:	e1560000 	cmp	r6, r0
    46c4:	1affffef 	bne	4688 <_UpdateTcpServerRelayRequestRStatus+0x44>
    46c8:	e1d200b0 	ldrh	r0, [r2]
    46cc:	e1500007 	cmp	r0, r7
    46d0:	1affffec 	bne	4688 <_UpdateTcpServerRelayRequestRStatus+0x44>
    46d4:	e0841301 	add	r1, r4, r1, lsl #6
    46d8:	e591372c 	ldr	r3, [r1, #1836]	; 0x72c
    46dc:	e3530009 	cmp	r3, #9
    46e0:	1353000c 	cmpne	r3, #12
    46e4:	03a02001 	moveq	r2, #1
    46e8:	13a02000 	movne	r2, #0
    46ec:	0a00000b 	beq	4720 <_UpdateTcpServerRelayRequestRStatus+0xdc>
    46f0:	e3550000 	cmp	r5, #0
    46f4:	0353000d 	cmpeq	r3, #13
    46f8:	1a000006 	bne	4718 <_UpdateTcpServerRelayRequestRStatus+0xd4>
    46fc:	e594064c 	ldr	r0, [r4, #1612]	; 0x64c
    4700:	e3a0300f 	mov	r3, #15
    4704:	e350000c 	cmp	r0, #12
    4708:	e5812730 	str	r2, [r1, #1840]	; 0x730
    470c:	e581372c 	str	r3, [r1, #1836]	; 0x72c
    4710:	0584364c 	streq	r3, [r4, #1612]	; 0x64c
    4714:	0584266c 	streq	r2, [r4, #1644]	; 0x66c
    4718:	e28dd01c 	add	sp, sp, #28
    471c:	e8bd80f0 	pop	{r4, r5, r6, r7, pc}
    4720:	e3550000 	cmp	r5, #0
    4724:	0a000004 	beq	473c <_UpdateTcpServerRelayRequestRStatus+0xf8>
    4728:	e3750007 	cmn	r5, #7
    472c:	03a0300d 	moveq	r3, #13
    4730:	0581372c 	streq	r3, [r1, #1836]	; 0x72c
    4734:	e28dd01c 	add	sp, sp, #28
    4738:	e8bd80f0 	pop	{r4, r5, r6, r7, pc}
    473c:	e3a0300f 	mov	r3, #15
    4740:	e5815730 	str	r5, [r1, #1840]	; 0x730
    4744:	e581372c 	str	r3, [r1, #1836]	; 0x72c
    4748:	e584364c 	str	r3, [r4, #1612]	; 0x64c
    474c:	e28dd01c 	add	sp, sp, #28
    4750:	e8bd80f0 	pop	{r4, r5, r6, r7, pc}

00004754 <_UpdateDeviceStatus>:
    4754:	e59fc12c 	ldr	ip, [pc, #300]	; 4888 <_UpdateDeviceStatus+0x134>
    4758:	e92d41f0 	push	{r4, r5, r6, r7, r8, lr}
    475c:	e153000c 	cmp	r3, ip
    4760:	e24dd018 	sub	sp, sp, #24
    4764:	e1a06000 	mov	r6, r0
    4768:	e5dd4034 	ldrb	r4, [sp, #52]	; 0x34
    476c:	03e05012 	mvneq	r5, #18
    4770:	0a000003 	beq	4784 <_UpdateDeviceStatus+0x30>
    4774:	e59f0110 	ldr	r0, [pc, #272]	; 488c <_UpdateDeviceStatus+0x138>
    4778:	e1530000 	cmp	r3, r0
    477c:	03e0503f 	mvneq	r5, #63	; 0x3f
    4780:	13e05000 	mvnne	r5, #0
    4784:	e1a00001 	mov	r0, r1
    4788:	e1a01002 	mov	r1, r2
    478c:	e28d2004 	add	r2, sp, #4
    4790:	ebfffffe 	bl	0 <iotc_netaddr_put_content>
			4790: R_ARM_CALL	iotc_netaddr_put_content
    4794:	e2863c07 	add	r3, r6, #1792	; 0x700
    4798:	e28d1008 	add	r1, sp, #8
    479c:	e8915002 	ldm	r1, {r1, ip, lr}
    47a0:	e59d7014 	ldr	r7, [sp, #20]
    47a4:	e1dd80b6 	ldrh	r8, [sp, #6]
    47a8:	e2833002 	add	r3, r3, #2
    47ac:	e3a02000 	mov	r2, #0
    47b0:	ea000006 	b	47d0 <_UpdateDeviceStatus+0x7c>
    47b4:	e5930016 	ldr	r0, [r3, #22]
    47b8:	e1510000 	cmp	r1, r0
    47bc:	0a000024 	beq	4854 <_UpdateDeviceStatus+0x100>
    47c0:	e2822001 	add	r2, r2, #1
    47c4:	e3520020 	cmp	r2, #32
    47c8:	e2833040 	add	r3, r3, #64	; 0x40
    47cc:	0a00001e 	beq	484c <_UpdateDeviceStatus+0xf8>
    47d0:	e5930002 	ldr	r0, [r3, #2]
    47d4:	e1500001 	cmp	r0, r1
    47d8:	1afffff5 	bne	47b4 <_UpdateDeviceStatus+0x60>
    47dc:	e5930006 	ldr	r0, [r3, #6]
    47e0:	e150000c 	cmp	r0, ip
    47e4:	1afffff2 	bne	47b4 <_UpdateDeviceStatus+0x60>
    47e8:	e593000a 	ldr	r0, [r3, #10]
    47ec:	e150000e 	cmp	r0, lr
    47f0:	1affffef 	bne	47b4 <_UpdateDeviceStatus+0x60>
    47f4:	e593000e 	ldr	r0, [r3, #14]
    47f8:	e1500007 	cmp	r0, r7
    47fc:	1affffec 	bne	47b4 <_UpdateDeviceStatus+0x60>
    4800:	e1d300b0 	ldrh	r0, [r3]
    4804:	e1500008 	cmp	r0, r8
    4808:	1affffe9 	bne	47b4 <_UpdateDeviceStatus+0x60>
    480c:	e0862302 	add	r2, r6, r2, lsl #6
    4810:	e5c25737 	strb	r5, [r2, #1847]	; 0x737
    4814:	e5c24736 	strb	r4, [r2, #1846]	; 0x736
    4818:	e5963ffc 	ldr	r3, [r6, #4092]	; 0xffc
    481c:	e59d1030 	ldr	r1, [sp, #48]	; 0x30
    4820:	e3530000 	cmp	r3, #0
    4824:	e5821738 	str	r1, [r2, #1848]	; 0x738
    4828:	1a000007 	bne	484c <_UpdateDeviceStatus+0xf8>
    482c:	e2863a01 	add	r3, r6, #4096	; 0x1000
    4830:	e5933000 	ldr	r3, [r3]
    4834:	e3530000 	cmp	r3, #0
    4838:	1a000003 	bne	484c <_UpdateDeviceStatus+0xf8>
    483c:	e2860eff 	add	r0, r6, #4080	; 0xff0
    4840:	e280000c 	add	r0, r0, #12
    4844:	e3a01000 	mov	r1, #0
    4848:	ebfffffe 	bl	0 <gettimeofday>
			4848: R_ARM_CALL	gettimeofday
    484c:	e28dd018 	add	sp, sp, #24
    4850:	e8bd81f0 	pop	{r4, r5, r6, r7, r8, pc}
    4854:	e593001a 	ldr	r0, [r3, #26]
    4858:	e15c0000 	cmp	ip, r0
    485c:	1affffd7 	bne	47c0 <_UpdateDeviceStatus+0x6c>
    4860:	e593001e 	ldr	r0, [r3, #30]
    4864:	e15e0000 	cmp	lr, r0
    4868:	1affffd4 	bne	47c0 <_UpdateDeviceStatus+0x6c>
    486c:	e5930022 	ldr	r0, [r3, #34]	; 0x22
    4870:	e1570000 	cmp	r7, r0
    4874:	1affffd1 	bne	47c0 <_UpdateDeviceStatus+0x6c>
    4878:	e1d301b4 	ldrh	r0, [r3, #20]
    487c:	e1500008 	cmp	r0, r8
    4880:	1affffce 	bne	47c0 <_UpdateDeviceStatus+0x6c>
    4884:	eaffffe0 	b	480c <_UpdateDeviceStatus+0xb8>
    4888:	00000227 	.word	0x00000227
    488c:	00000229 	.word	0x00000229

00004890 <_UpdateUdpServerList>:
    4890:	e92d4ff0 	push	{r4, r5, r6, r7, r8, r9, sl, fp, lr}
    4894:	e24dd024 	sub	sp, sp, #36	; 0x24
    4898:	e1a09000 	mov	r9, r0
    489c:	ebffef79 	bl	688 <_SearchServerListIndex>
    48a0:	e2504000 	subs	r4, r0, #0
    48a4:	ba000048 	blt	49cc <_UpdateUdpServerList+0x13c>
    48a8:	e59f5124 	ldr	r5, [pc, #292]	; 49d4 <_UpdateUdpServerList+0x144>
    48ac:	e0644184 	rsb	r4, r4, r4, lsl #3
    48b0:	e08f5005 	add	r5, pc, r5
    48b4:	e2450eaf 	sub	r0, r5, #2800	; 0xaf0
    48b8:	ebfffffe 	bl	0 <pthread_mutex_lock>
			48b8: R_ARM_CALL	pthread_mutex_lock
    48bc:	e2453eae 	sub	r3, r5, #2784	; 0xae0
    48c0:	e1a04104 	lsl	r4, r4, #2
    48c4:	e243300c 	sub	r3, r3, #12
    48c8:	e0833004 	add	r3, r3, r4
    48cc:	e1d320b6 	ldrh	r2, [r3, #6]
    48d0:	e3520000 	cmp	r2, #0
    48d4:	0a000031 	beq	49a0 <_UpdateUdpServerList+0x110>
    48d8:	e085a004 	add	sl, r5, r4
    48dc:	e2892c07 	add	r2, r9, #1792	; 0x700
    48e0:	e2896c0f 	add	r6, r9, #3840	; 0xf00
    48e4:	e3a07000 	mov	r7, #0
    48e8:	e58d3004 	str	r3, [sp, #4]
    48ec:	e24aaead 	sub	sl, sl, #2768	; 0xad0
    48f0:	e2823002 	add	r3, r2, #2
    48f4:	e1a08007 	mov	r8, r7
    48f8:	e2866002 	add	r6, r6, #2
    48fc:	e1a09002 	mov	r9, r2
    4900:	e28d500c 	add	r5, sp, #12
    4904:	e58d3000 	str	r3, [sp]
    4908:	e51a400c 	ldr	r4, [sl, #-12]
    490c:	e59db000 	ldr	fp, [sp]
    4910:	e0844007 	add	r4, r4, r7
    4914:	ea000002 	b	4924 <_UpdateUdpServerList+0x94>
    4918:	e28bb040 	add	fp, fp, #64	; 0x40
    491c:	e15b0006 	cmp	fp, r6
    4920:	0a000024 	beq	49b8 <_UpdateUdpServerList+0x128>
    4924:	e1a01004 	mov	r1, r4
    4928:	e3a02014 	mov	r2, #20
    492c:	e1a00005 	mov	r0, r5
    4930:	ebfffffe 	bl	0 <memcpy>
			4930: R_ARM_CALL	memcpy
    4934:	e59d1010 	ldr	r1, [sp, #16]
    4938:	e59b2002 	ldr	r2, [fp, #2]
    493c:	e1510002 	cmp	r1, r2
    4940:	1afffff4 	bne	4918 <_UpdateUdpServerList+0x88>
    4944:	e59d1014 	ldr	r1, [sp, #20]
    4948:	e59b2006 	ldr	r2, [fp, #6]
    494c:	e1510002 	cmp	r1, r2
    4950:	1afffff0 	bne	4918 <_UpdateUdpServerList+0x88>
    4954:	e59d1018 	ldr	r1, [sp, #24]
    4958:	e59b200a 	ldr	r2, [fp, #10]
    495c:	e1510002 	cmp	r1, r2
    4960:	1affffec 	bne	4918 <_UpdateUdpServerList+0x88>
    4964:	e59d101c 	ldr	r1, [sp, #28]
    4968:	e59b200e 	ldr	r2, [fp, #14]
    496c:	e1510002 	cmp	r1, r2
    4970:	1affffe8 	bne	4918 <_UpdateUdpServerList+0x88>
    4974:	e1dd10be 	ldrh	r1, [sp, #14]
    4978:	e1db20b0 	ldrh	r2, [fp]
    497c:	e1510002 	cmp	r1, r2
    4980:	1affffe4 	bne	4918 <_UpdateUdpServerList+0x88>
    4984:	e59d3004 	ldr	r3, [sp, #4]
    4988:	e2888001 	add	r8, r8, #1
    498c:	e1d330b6 	ldrh	r3, [r3, #6]
    4990:	e2877014 	add	r7, r7, #20
    4994:	e1530008 	cmp	r3, r8
    4998:	e2899040 	add	r9, r9, #64	; 0x40
    499c:	caffffd9 	bgt	4908 <_UpdateUdpServerList+0x78>
    49a0:	e59f0030 	ldr	r0, [pc, #48]	; 49d8 <_UpdateUdpServerList+0x148>
    49a4:	e08f0000 	add	r0, pc, r0
    49a8:	e2400eaf 	sub	r0, r0, #2800	; 0xaf0
    49ac:	e28dd024 	add	sp, sp, #36	; 0x24
    49b0:	e8bd4ff0 	pop	{r4, r5, r6, r7, r8, r9, sl, fp, lr}
    49b4:	eafffffe 	b	0 <pthread_mutex_unlock>
			49b4: R_ARM_JUMP24	pthread_mutex_unlock
    49b8:	e1a01004 	mov	r1, r4
    49bc:	e1a00009 	mov	r0, r9
    49c0:	e3a02014 	mov	r2, #20
    49c4:	ebfffffe 	bl	0 <memcpy>
			49c4: R_ARM_CALL	memcpy
    49c8:	eaffffed 	b	4984 <_UpdateUdpServerList+0xf4>
    49cc:	e28dd024 	add	sp, sp, #36	; 0x24
    49d0:	e8bd8ff0 	pop	{r4, r5, r6, r7, r8, r9, sl, fp, pc}
    49d4:	00002114 	.word	0x00002114
			49d4: R_ARM_REL32	.bss
    49d8:	00002024 	.word	0x00002024
			49d8: R_ARM_REL32	.bss

000049dc <__Search_Session>:
    49dc:	e92d41f0 	push	{r4, r5, r6, r7, r8, lr}
    49e0:	e59f50d0 	ldr	r5, [pc, #208]	; 4ab8 <__Search_Session+0xdc>
    49e4:	e24dd018 	sub	sp, sp, #24
    49e8:	e28d2004 	add	r2, sp, #4
    49ec:	ebfffffe 	bl	0 <iotc_netaddr_put_content>
			49ec: R_ARM_CALL	iotc_netaddr_put_content
    49f0:	e79f5005 	ldr	r5, [pc, r5]
    49f4:	e1a00005 	mov	r0, r5
    49f8:	ebfffffe 	bl	0 <pthread_mutex_lock>
			49f8: R_ARM_CALL	pthread_mutex_lock
    49fc:	e59f30b8 	ldr	r3, [pc, #184]	; 4abc <__Search_Session+0xe0>
    4a00:	e79f0003 	ldr	r0, [pc, r3]
    4a04:	e3500000 	cmp	r0, #0
    4a08:	da000027 	ble	4aac <__Search_Session+0xd0>
    4a0c:	e59f30ac 	ldr	r3, [pc, #172]	; 4ac0 <__Search_Session+0xe4>
    4a10:	e59dc008 	ldr	ip, [sp, #8]
    4a14:	e79f3003 	ldr	r3, [pc, r3]
    4a18:	e59de00c 	ldr	lr, [sp, #12]
    4a1c:	e5933000 	ldr	r3, [r3]
    4a20:	e59d6010 	ldr	r6, [sp, #16]
    4a24:	e59d7014 	ldr	r7, [sp, #20]
    4a28:	e1dd80b6 	ldrh	r8, [sp, #6]
    4a2c:	e3a04000 	mov	r4, #0
    4a30:	ea000003 	b	4a44 <__Search_Session+0x68>
    4a34:	e2844001 	add	r4, r4, #1
    4a38:	e1540000 	cmp	r4, r0
    4a3c:	e2813010 	add	r3, r1, #16
    4a40:	0a000013 	beq	4a94 <__Search_Session+0xb8>
    4a44:	e5d32019 	ldrb	r2, [r3, #25]
    4a48:	e2831a01 	add	r1, r3, #4096	; 0x1000
    4a4c:	e3520002 	cmp	r2, #2
    4a50:	1afffff7 	bne	4a34 <__Search_Session+0x58>
    4a54:	e593209c 	ldr	r2, [r3, #156]	; 0x9c
